Archive member included because of file (symbol)

libbb/lib.a(appletlib.o)      /home/luokunling/open-HG633/BR-R5-HG633HG658v2-20140408/output/host/usr/arm-unknown-linux-uclibcgnueabi/sysroot/usr/lib/crt1.o (main)
libbb/lib.a(bb_basename.o)    libbb/lib.a(appletlib.o) (bb_basename)
libbb/lib.a(concat_path_file.o)
                              libbb/lib.a(appletlib.o) (concat_path_file)
libbb/lib.a(default_error_retval.o)
                              libbb/lib.a(appletlib.o) (xfunc_error_retval)
libbb/lib.a(error_msg_and_die.o)
                              libbb/lib.a(appletlib.o) (xfunc_die)
libbb/lib.a(get_last_path_component.o)
                              libbb/lib.a(appletlib.o) (bb_get_last_path_component_nostrip)
libbb/lib.a(last_char_is.o)   libbb/lib.a(concat_path_file.o) (last_char_is)
libbb/lib.a(messages.o)       libbb/lib.a(appletlib.o) (bb_banner)
libbb/lib.a(perror_msg.o)     libbb/lib.a(appletlib.o) (bb_simple_perror_msg)
libbb/lib.a(verror_msg.o)     libbb/lib.a(error_msg_and_die.o) (bb_verror_msg)
libbb/lib.a(xfuncs.o)         libbb/lib.a(concat_path_file.o) (xasprintf)
libbb/lib.a(xreadlink.o)      libbb/lib.a(appletlib.o) (xmalloc_readlink)
libbb/lib.a(copyfd.o)         libbb/lib.a(xfuncs.o) (bb_copyfd_eof)
libbb/lib.a(error_msg.o)      libbb/lib.a(xfuncs.o) (bb_error_msg)
libbb/lib.a(full_write.o)     libbb/lib.a(verror_msg.o) (full_write)
libbb/lib.a(perror_msg_and_die.o)
                              libbb/lib.a(xfuncs.o) (bb_perror_msg_and_die)
libbb/lib.a(read.o)           libbb/lib.a(xfuncs.o) (safe_read)
libbb/lib.a(safe_write.o)     libbb/lib.a(full_write.o) (safe_write)
loginutils/lib.a(su.o)        libbb/lib.a(appletlib.o) (su_main)
miscutils/lib.a(crond.o)      libbb/lib.a(appletlib.o) (crond_main)
miscutils/lib.a(crontab.o)    libbb/lib.a(appletlib.o) (crontab_main)
miscutils/lib.a(makedevs.o)   libbb/lib.a(appletlib.o) (makedevs_main)
miscutils/lib.a(taskset.o)    libbb/lib.a(appletlib.o) (taskset_main)
modutils/lib.a(insmod.o)      libbb/lib.a(appletlib.o) (insmod_main)
networking/lib.a(ifconfig.o)  libbb/lib.a(appletlib.o) (ifconfig_main)
networking/lib.a(interface.o)
                              networking/lib.a(ifconfig.o) (display_interfaces)
networking/lib.a(netstat.o)   libbb/lib.a(appletlib.o) (netstat_main)
networking/lib.a(route.o)     networking/lib.a(netstat.o) (bb_displayroutes)
networking/lib.a(smuxctl.o)   libbb/lib.a(appletlib.o) (smuxctl_main)
networking/lib.a(traceroute.o)
                              libbb/lib.a(appletlib.o) (traceroute_main)
networking/lib.a(vconfig.o)   libbb/lib.a(appletlib.o) (vconfig_main)
networking/lib.a(zcip.o)      libbb/lib.a(appletlib.o) (zcip_main)
networking/udhcp/lib.a(dhcpc.o)
                              libbb/lib.a(appletlib.o) (udhcpc_main)
networking/udhcp/lib.a(dhcpd.o)
                              libbb/lib.a(appletlib.o) (udhcpd_main)
networking/udhcp/lib.a(files.o)
                              networking/udhcp/lib.a(dhcpd.o) (find_option)
networking/udhcp/lib.a(leases.o)
                              networking/udhcp/lib.a(dhcpd.o) (find_lease_by_yiaddr)
networking/udhcp/lib.a(options.o)
                              networking/udhcp/lib.a(dhcpc.o) (udhcp_get_option)
networking/udhcp/lib.a(packet.o)
                              networking/udhcp/lib.a(dhcpc.o) (udhcp_recv_packet)
networking/udhcp/lib.a(script.o)
                              networking/udhcp/lib.a(dhcpc.o) (udhcp_run_script)
networking/udhcp/lib.a(serverpacket.o)
                              networking/udhcp/lib.a(dhcpd.o) (send_inform)
networking/udhcp/lib.a(signalpipe.o)
                              networking/udhcp/lib.a(dhcpc.o) (udhcp_sp_read)
networking/udhcp/lib.a(socket.o)
                              networking/udhcp/lib.a(dhcpc.o) (udhcp_listen_socket)
networking/udhcp/lib.a(static_leases.o)
                              networking/udhcp/lib.a(leases.o) (reservedIp)
networking/udhcp/lib.a(arpping.o)
                              networking/udhcp/lib.a(leases.o) (arpping)
networking/udhcp/lib.a(clientpacket.o)
                              networking/udhcp/lib.a(dhcpc.o) (get_raw_packet)
networking/udhcp/lib.a(clientsocket.o)
                              networking/udhcp/lib.a(dhcpc.o) (raw_socket)
networking/udhcp/lib.a(common.o)
                              networking/udhcp/lib.a(serverpacket.o) (MAC_BCAST_ADDR)
procps/lib.a(kill.o)          libbb/lib.a(appletlib.o) (kill_main)
procps/lib.a(ps.o)            libbb/lib.a(appletlib.o) (ps_main)
procps/lib.a(renice.o)        libbb/lib.a(appletlib.o) (renice_main)
procps/lib.a(top.o)           libbb/lib.a(appletlib.o) (top_main)
shell/lib.a(ash.o)            libbb/lib.a(appletlib.o) (ash_main)
util-linux/lib.a(mount.o)     libbb/lib.a(appletlib.o) (mount_main)
util-linux/lib.a(umount.o)    libbb/lib.a(appletlib.o) (umount_main)
atpconfig/lib.a(arp.o)        libbb/lib.a(appletlib.o) (arp_main)
atpconfig/lib.a(atpcommon.o)  libbb/lib.a(xfuncs.o) (ATPUpgradePrecheckProc)
atpconfig/lib.a(ftpgetput.o)  libbb/lib.a(appletlib.o) (ftpget_main)
atpconfig/lib.a(gplgethostbyname.o)
                              networking/lib.a(traceroute.o) (ATP_GPL_Gethostbyname)
atpconfig/lib.a(ping.o)       libbb/lib.a(appletlib.o) (ping_main)
atpconfig/lib.a(traceroute6.o)
                              libbb/lib.a(appletlib.o) (traceroute6_main)
atpconfig/lib.a(wget.o)       libbb/lib.a(appletlib.o) (wget_main)
archival/lib.a(tar.o)         libbb/lib.a(appletlib.o) (tar_main)
archival/libunarchive/lib.a(data_extract_all.o)
                              archival/lib.a(tar.o) (data_extract_all)
archival/libunarchive/lib.a(data_extract_to_stdout.o)
                              archival/lib.a(tar.o) (data_extract_to_stdout)
archival/libunarchive/lib.a(data_skip.o)
                              archival/libunarchive/lib.a(data_extract_all.o) (data_skip)
archival/libunarchive/lib.a(decompress_bunzip2.o)
                              libbb/lib.a(appletlib.o) (dealloc_bunzip)
archival/libunarchive/lib.a(decompress_uncompress.o)
                              archival/lib.a(tar.o) (uncompress)
archival/libunarchive/lib.a(filter_accept_reject_list.o)
                              archival/lib.a(tar.o) (filter_accept_reject_list)
archival/libunarchive/lib.a(find_list_entry.o)
                              archival/libunarchive/lib.a(filter_accept_reject_list.o) (find_list_entry2)
archival/libunarchive/lib.a(get_header_tar.o)
                              archival/lib.a(tar.o) (get_header_tar)
archival/libunarchive/lib.a(get_header_tar_bz2.o)
                              archival/lib.a(tar.o) (get_header_tar_bz2)
archival/libunarchive/lib.a(get_header_tar_gz.o)
                              archival/lib.a(tar.o) (get_header_tar_gz)
archival/libunarchive/lib.a(header_list.o)
                              archival/lib.a(tar.o) (header_list)
archival/libunarchive/lib.a(header_verbose_list.o)
                              archival/lib.a(tar.o) (header_verbose_list)
archival/libunarchive/lib.a(init_handle.o)
                              archival/lib.a(tar.o) (init_handle)
archival/libunarchive/lib.a(open_transformer.o)
                              archival/lib.a(tar.o) (open_transformer)
archival/libunarchive/lib.a(seek_by_jump.o)
                              archival/libunarchive/lib.a(init_handle.o) (seek_by_jump)
archival/libunarchive/lib.a(seek_by_read.o)
                              archival/lib.a(tar.o) (seek_by_read)
archival/libunarchive/lib.a(data_align.o)
                              archival/libunarchive/lib.a(get_header_tar.o) (data_align)
archival/libunarchive/lib.a(decompress_unzip.o)
                              archival/libunarchive/lib.a(get_header_tar_gz.o) (unpack_gz_stream)
archival/libunarchive/lib.a(filter_accept_all.o)
                              archival/libunarchive/lib.a(init_handle.o) (filter_accept_all)
archival/libunarchive/lib.a(header_skip.o)
                              archival/libunarchive/lib.a(init_handle.o) (header_skip)
console-tools/lib.a(setconsole.o)
                              libbb/lib.a(appletlib.o) (setconsole_main)
coreutils/lib.a(cat.o)        libbb/lib.a(appletlib.o) (cat_main)
coreutils/lib.a(chmod.o)      libbb/lib.a(appletlib.o) (chmod_main)
coreutils/lib.a(cp.o)         libbb/lib.a(appletlib.o) (cp_main)
coreutils/lib.a(date.o)       libbb/lib.a(appletlib.o) (date_main)
coreutils/lib.a(echo.o)       libbb/lib.a(appletlib.o) (echo_main)
coreutils/lib.a(ls.o)         libbb/lib.a(appletlib.o) (ls_main)
coreutils/lib.a(mkdir.o)      libbb/lib.a(appletlib.o) (mkdir_main)
coreutils/lib.a(mknod.o)      libbb/lib.a(appletlib.o) (mknod_main)
coreutils/lib.a(mv.o)         libbb/lib.a(appletlib.o) (mv_main)
coreutils/lib.a(rm.o)         libbb/lib.a(appletlib.o) (rm_main)
coreutils/lib.a(sleep.o)      libbb/lib.a(appletlib.o) (sleep_main)
coreutils/lib.a(test.o)       libbb/lib.a(appletlib.o) (test_main)
coreutils/lib.a(usleep.o)     libbb/lib.a(appletlib.o) (usleep_main)
coreutils/libcoreutils/lib.a(cp_mv_stat.o)
                              coreutils/lib.a(cp.o) (cp_mv_stat2)
coreutils/libcoreutils/lib.a(getopt_mk_fifo_nod.o)
                              coreutils/lib.a(mknod.o) (getopt_mk_fifo_nod)
debianutils/lib.a(start_stop_daemon.o)
                              libbb/lib.a(appletlib.o) (start_stop_daemon_main)
editors/lib.a(awk.o)          libbb/lib.a(appletlib.o) (awk_main)
editors/lib.a(diff.o)         libbb/lib.a(appletlib.o) (diff_main)
editors/lib.a(sed.o)          libbb/lib.a(appletlib.o) (sed_main)
findutils/lib.a(grep.o)       libbb/lib.a(appletlib.o) (grep_main)
init/lib.a(halt.o)            libbb/lib.a(appletlib.o) (halt_main)
init/lib.a(init.o)            libbb/lib.a(appletlib.o) (init_main)
libbb/lib.a(ask_confirmation.o)
                              coreutils/lib.a(mv.o) (bb_ask_confirmation)
libbb/lib.a(bb_pwd.o)         miscutils/lib.a(makedevs.o) (get_ug_id)
libbb/lib.a(bb_strtonum.o)    procps/lib.a(kill.o) (bb_strtol)
libbb/lib.a(change_identity.o)
                              miscutils/lib.a(crond.o) (change_identity_e2str)
libbb/lib.a(compare_string_array.o)
                              networking/udhcp/lib.a(dhcpc.o) (index_in_strings)
libbb/lib.a(copy_file.o)      networking/lib.a(traceroute.o) (copy_file)
libbb/lib.a(correct_password.o)
                              loginutils/lib.a(su.o) (correct_password)
libbb/lib.a(crc32.o)          archival/libunarchive/lib.a(decompress_bunzip2.o) (crc32_filltable)
libbb/lib.a(create_icmp6_socket.o)
                              atpconfig/lib.a(ping.o) (create_icmp6_socket)
libbb/lib.a(create_icmp_socket.o)
                              atpconfig/lib.a(ping.o) (create_icmp_socket)
libbb/lib.a(device_open.o)    init/lib.a(init.o) (device_open)
libbb/lib.a(execable.o)       miscutils/lib.a(taskset.o) (bb_execvp)
libbb/lib.a(fclose_nonstdin.o)
                              editors/lib.a(diff.o) (fclose_if_not_stdin)
libbb/lib.a(fflush_stdout_and_exit.o)
                              networking/lib.a(route.o) (fflush_stdout_and_exit)
libbb/lib.a(find_pid_by_name.o)
                              procps/lib.a(kill.o) (find_pid_by_name)
libbb/lib.a(get_line_from_file.o)
                              editors/lib.a(sed.o) (bb_get_chunk_from_file)
libbb/lib.a(getopt32.o)       loginutils/lib.a(su.o) (getopt32)
libbb/lib.a(herror_msg_and_die.o)
                              atpconfig/lib.a(arp.o) (bb_herror_msg_and_die)
libbb/lib.a(inet_common.o)    networking/lib.a(interface.o) (INET6_rresolve)
libbb/lib.a(info_msg.o)       networking/lib.a(traceroute.o) (bb_info_msg)
libbb/lib.a(inode_hash.o)     libbb/lib.a(copy_file.o) (is_in_ino_dev_hashtable)
libbb/lib.a(lineedit.o)       shell/lib.a(ash.o) (new_line_input_t)
libbb/lib.a(llist.o)          editors/lib.a(awk.o) (llist_pop)
libbb/lib.a(make_directory.o)
                              miscutils/lib.a(makedevs.o) (bb_make_directory)
libbb/lib.a(makedev.o)        miscutils/lib.a(makedevs.o) (bb_makedev)
libbb/lib.a(match_fstype.o)   util-linux/lib.a(mount.o) (match_fstype)
libbb/lib.a(mode_string.o)    archival/libunarchive/lib.a(header_verbose_list.o) (bb_mode_string)
libbb/lib.a(mtab_file.o)      util-linux/lib.a(mount.o) (bb_path_mtab_file)
libbb/lib.a(parse_mode.o)     shell/lib.a(ash.o) (bb_parse_mode)
libbb/lib.a(perror_nomsg_and_die.o)
                              atpconfig/lib.a(ftpgetput.o) (bb_perror_nomsg_and_die)
libbb/lib.a(pidfile.o)        networking/udhcp/lib.a(dhcpc.o) (write_pidfile)
libbb/lib.a(process_escape_sequence.o)
                              coreutils/lib.a(echo.o) (bb_process_escape_sequence)
libbb/lib.a(procps.o)         procps/lib.a(ps.o) (read_cmdline)
libbb/lib.a(recursive_action.o)
                              archival/lib.a(tar.o) (recursive_action)
libbb/lib.a(remove_file.o)    networking/lib.a(traceroute.o) (remove_file)
libbb/lib.a(run_shell.o)      loginutils/lib.a(su.o) (run_shell)
libbb/lib.a(safe_poll.o)      networking/lib.a(traceroute.o) (safe_poll)
libbb/lib.a(safe_strncpy.o)   miscutils/lib.a(crontab.o) (safe_strncpy)
libbb/lib.a(setup_environment.o)
                              loginutils/lib.a(su.o) (setup_environment)
libbb/lib.a(simplify_path.o)  util-linux/lib.a(mount.o) (bb_simplify_path)
libbb/lib.a(skip_whitespace.o)
                              atpconfig/lib.a(wget.o) (skip_non_whitespace)
libbb/lib.a(str_tolower.o)    atpconfig/lib.a(wget.o) (str_tolower)
libbb/lib.a(time.o)           networking/udhcp/lib.a(dhcpc.o) (monotonic_sec)
libbb/lib.a(trim.o)           miscutils/lib.a(crond.o) (trim)
libbb/lib.a(u_signal_names.o)
                              procps/lib.a(kill.o) (print_signames)
libbb/lib.a(vfork_daemon_rexec.o)
                              miscutils/lib.a(crond.o) (bb_daemonize_or_rexec)
libbb/lib.a(wfopen.o)         networking/udhcp/lib.a(files.o) (fopen_or_warn)
libbb/lib.a(xatonum.o)        procps/lib.a(renice.o) (xatol_range)
libbb/lib.a(xconnect.o)       atpconfig/lib.a(ftpgetput.o) (set_nport)
libbb/lib.a(xgetcwd.o)        libbb/lib.a(simplify_path.o) (xrealloc_getcwd_or_warn)
libbb/lib.a(xgethostbyname.o)
                              libbb/lib.a(xconnect.o) (xgethostbyname)
libbb/lib.a(xregcomp.o)       editors/lib.a(awk.o) (xregcomp)
libbb/lib.a(bb_askpass.o)     libbb/lib.a(correct_password.o) (bb_askpass)
libbb/lib.a(concat_subpath_file.o)
                              libbb/lib.a(copy_file.o) (concat_subpath_file)
libpwdgrp/lib.a(uidgid_get.o)
                              debianutils/lib.a(start_stop_daemon.o) (parse_chown_usergroup_or_die)
/opt/toolchain_hisi_ipsec/arm-hsan-linux-uclibcgnueabi/bin/../lib/gcc/arm-hsan-linux-uclibcgnueabi/4.4.6/libgcc.a(_udivsi3.o)
                              libbb/lib.a(xfuncs.o) (__aeabi_uidiv)
/opt/toolchain_hisi_ipsec/arm-hsan-linux-uclibcgnueabi/bin/../lib/gcc/arm-hsan-linux-uclibcgnueabi/4.4.6/libgcc.a(_divsi3.o)
                              miscutils/lib.a(crond.o) (__aeabi_idiv)
/opt/toolchain_hisi_ipsec/arm-hsan-linux-uclibcgnueabi/bin/../lib/gcc/arm-hsan-linux-uclibcgnueabi/4.4.6/libgcc.a(_lshrdi3.o)
                              shell/lib.a(ash.o) (__aeabi_llsr)
/opt/toolchain_hisi_ipsec/arm-hsan-linux-uclibcgnueabi/bin/../lib/gcc/arm-hsan-linux-uclibcgnueabi/4.4.6/libgcc.a(_ashldi3.o)
                              shell/lib.a(ash.o) (__aeabi_llsl)
/opt/toolchain_hisi_ipsec/arm-hsan-linux-uclibcgnueabi/bin/../lib/gcc/arm-hsan-linux-uclibcgnueabi/4.4.6/libgcc.a(_arm_addsubdf3.o)
                              editors/lib.a(awk.o) (__aeabi_dsub)
/opt/toolchain_hisi_ipsec/arm-hsan-linux-uclibcgnueabi/bin/../lib/gcc/arm-hsan-linux-uclibcgnueabi/4.4.6/libgcc.a(_arm_muldivdf3.o)
                              atpconfig/lib.a(traceroute6.o) (__aeabi_dmul)
/opt/toolchain_hisi_ipsec/arm-hsan-linux-uclibcgnueabi/bin/../lib/gcc/arm-hsan-linux-uclibcgnueabi/4.4.6/libgcc.a(_arm_cmpdf2.o)
                              editors/lib.a(awk.o) (__aeabi_dcmpeq)
/opt/toolchain_hisi_ipsec/arm-hsan-linux-uclibcgnueabi/bin/../lib/gcc/arm-hsan-linux-uclibcgnueabi/4.4.6/libgcc.a(_arm_fixdfsi.o)
                              atpconfig/lib.a(traceroute6.o) (__aeabi_d2iz)
/opt/toolchain_hisi_ipsec/arm-hsan-linux-uclibcgnueabi/bin/../lib/gcc/arm-hsan-linux-uclibcgnueabi/4.4.6/libgcc.a(_arm_fixunsdfsi.o)
                              editors/lib.a(awk.o) (__aeabi_d2uiz)
/opt/toolchain_hisi_ipsec/arm-hsan-linux-uclibcgnueabi/bin/../lib/gcc/arm-hsan-linux-uclibcgnueabi/4.4.6/libgcc.a(_aeabi_ldivmod.o)
                              archival/libunarchive/lib.a(data_align.o) (__aeabi_ldivmod)
/opt/toolchain_hisi_ipsec/arm-hsan-linux-uclibcgnueabi/bin/../lib/gcc/arm-hsan-linux-uclibcgnueabi/4.4.6/libgcc.a(_aeabi_uldivmod.o)
                              networking/udhcp/lib.a(arpping.o) (__aeabi_uldivmod)
/opt/toolchain_hisi_ipsec/arm-hsan-linux-uclibcgnueabi/bin/../lib/gcc/arm-hsan-linux-uclibcgnueabi/4.4.6/libgcc.a(_dvmd_lnx.o)
                              /opt/toolchain_hisi_ipsec/arm-hsan-linux-uclibcgnueabi/bin/../lib/gcc/arm-hsan-linux-uclibcgnueabi/4.4.6/libgcc.a(_udivsi3.o) (__div0)
/opt/toolchain_hisi_ipsec/arm-hsan-linux-uclibcgnueabi/bin/../lib/gcc/arm-hsan-linux-uclibcgnueabi/4.4.6/libgcc.a(bpabi.o)
                              /opt/toolchain_hisi_ipsec/arm-hsan-linux-uclibcgnueabi/bin/../lib/gcc/arm-hsan-linux-uclibcgnueabi/4.4.6/libgcc.a(_aeabi_uldivmod.o) (__gnu_uldivmod_helper)
/opt/toolchain_hisi_ipsec/arm-hsan-linux-uclibcgnueabi/bin/../lib/gcc/arm-hsan-linux-uclibcgnueabi/4.4.6/libgcc.a(_divdi3.o)
                              /opt/toolchain_hisi_ipsec/arm-hsan-linux-uclibcgnueabi/bin/../lib/gcc/arm-hsan-linux-uclibcgnueabi/4.4.6/libgcc.a(bpabi.o) (__divdi3)
/opt/toolchain_hisi_ipsec/arm-hsan-linux-uclibcgnueabi/bin/../lib/gcc/arm-hsan-linux-uclibcgnueabi/4.4.6/libgcc.a(_udivdi3.o)
                              /opt/toolchain_hisi_ipsec/arm-hsan-linux-uclibcgnueabi/bin/../lib/gcc/arm-hsan-linux-uclibcgnueabi/4.4.6/libgcc.a(bpabi.o) (__udivdi3)
/opt/toolchain_hisi_ipsec/arm-hsan-linux-uclibcgnueabi/bin/../lib/gcc/arm-hsan-linux-uclibcgnueabi/4.4.6/libgcc.a(_clzsi2.o)
                              /opt/toolchain_hisi_ipsec/arm-hsan-linux-uclibcgnueabi/bin/../lib/gcc/arm-hsan-linux-uclibcgnueabi/4.4.6/libgcc.a(_divdi3.o) (__clzsi2)
/home/luokunling/open-HG633/BR-R5-HG633HG658v2-20140408/output/host/usr/arm-unknown-linux-uclibcgnueabi/sysroot/usr/lib/uclibc_nonshared.a(atexit.os)
                              editors/lib.a(sed.o) (atexit)

Allocating common symbols
Common symbol       size              file

bb_common_bufsiz1   0x1001            libbb/lib.a(messages.o)
die_jmp             0x110             libbb/lib.a(error_msg_and_die.o)
saddr               0x1c              atpconfig/lib.a(traceroute6.o)
hopaddr             0x20              atpconfig/lib.a(traceroute6.o)
wrote_pidfile       0x4               libbb/lib.a(pidfile.o)
verbose             0x4               atpconfig/lib.a(traceroute6.o)
hostname            0x4               atpconfig/lib.a(traceroute6.o)
tz                  0x8               atpconfig/lib.a(traceroute6.o)
ident               0x4               atpconfig/lib.a(traceroute6.o)
hoprttime           0xc               atpconfig/lib.a(traceroute6.o)
options             0x4               atpconfig/lib.a(traceroute6.o)
option_mask32       0x4               libbb/lib.a(getopt32.o)
g_acCmd             0xff              networking/udhcp/lib.a(dhcpc.o)
interface_opt_a     0x4               networking/lib.a(interface.o)
icmp_sock           0x4               atpconfig/lib.a(traceroute6.o)
applet_name         0x4               libbb/lib.a(appletlib.o)
die_sleep           0x4               libbb/lib.a(error_msg_and_die.o)
opt_complementary   0x4               libbb/lib.a(getopt32.o)
g_interface         0x10              networking/udhcp/lib.a(dhcpc.o)
hophost             0x40              atpconfig/lib.a(traceroute6.o)
resptime            0x4               atpconfig/lib.a(traceroute6.o)
leases              0x4               networking/udhcp/lib.a(dhcpd.o)
hoperrno            0x4               atpconfig/lib.a(traceroute6.o)
packet              0x200             atpconfig/lib.a(traceroute6.o)
whereto             0x1c              atpconfig/lib.a(traceroute6.o)
sendbuff            0x4               atpconfig/lib.a(traceroute6.o)
firsthop            0x1c              atpconfig/lib.a(traceroute6.o)
sndsock             0x4               atpconfig/lib.a(traceroute6.o)
applet_long_options
                    0x4               libbb/lib.a(getopt32.o)
nflag               0x4               atpconfig/lib.a(traceroute6.o)

Discarded input sections

 .data          0x00000000        0x4 /home/luokunling/open-HG633/BR-R5-HG633HG658v2-20140408/output/host/usr/arm-unknown-linux-uclibcgnueabi/sysroot/usr/lib/crt1.o
 .bss           0x00000000        0x0 /home/luokunling/open-HG633/BR-R5-HG633HG658v2-20140408/output/host/usr/arm-unknown-linux-uclibcgnueabi/sysroot/usr/lib/crt1.o
 .note.GNU-stack
                0x00000000        0x0 /home/luokunling/open-HG633/BR-R5-HG633HG658v2-20140408/output/host/usr/arm-unknown-linux-uclibcgnueabi/sysroot/usr/lib/crt1.o
 .text          0x00000000       0x3c /home/luokunling/open-HG633/BR-R5-HG633HG658v2-20140408/output/host/usr/arm-unknown-linux-uclibcgnueabi/sysroot/usr/lib/crti.o
 .data          0x00000000        0x0 /home/luokunling/open-HG633/BR-R5-HG633HG658v2-20140408/output/host/usr/arm-unknown-linux-uclibcgnueabi/sysroot/usr/lib/crti.o
 .bss           0x00000000        0x0 /home/luokunling/open-HG633/BR-R5-HG633HG658v2-20140408/output/host/usr/arm-unknown-linux-uclibcgnueabi/sysroot/usr/lib/crti.o
 .note.GNU-stack
                0x00000000        0x0 /home/luokunling/open-HG633/BR-R5-HG633HG658v2-20140408/output/host/usr/arm-unknown-linux-uclibcgnueabi/sysroot/usr/lib/crti.o
 .note.GNU-stack
                0x00000000        0x0 /opt/toolchain_hisi_ipsec/arm-hsan-linux-uclibcgnueabi/bin/../lib/gcc/arm-hsan-linux-uclibcgnueabi/4.4.6/crtbegin.o
 .text          0x00000000        0x0 applets/built-in.o
 .data          0x00000000        0x0 applets/built-in.o
 .bss           0x00000000        0x0 applets/built-in.o
 .note.GNU-stack
                0x00000000        0x0 applets/built-in.o
 .text          0x00000000        0x0 libbb/lib.a(appletlib.o)
 .bss           0x00000000        0x0 libbb/lib.a(appletlib.o)
 .note.GNU-stack
                0x00000000        0x0 libbb/lib.a(appletlib.o)
 .text          0x00000000        0x0 libbb/lib.a(bb_basename.o)
 .data          0x00000000        0x0 libbb/lib.a(bb_basename.o)
 .bss           0x00000000        0x0 libbb/lib.a(bb_basename.o)
 .note.GNU-stack
                0x00000000        0x0 libbb/lib.a(bb_basename.o)
 .text          0x00000000        0x0 libbb/lib.a(concat_path_file.o)
 .data          0x00000000        0x0 libbb/lib.a(concat_path_file.o)
 .bss           0x00000000        0x0 libbb/lib.a(concat_path_file.o)
 .note.GNU-stack
                0x00000000        0x0 libbb/lib.a(concat_path_file.o)
 .text          0x00000000        0x0 libbb/lib.a(default_error_retval.o)
 .data          0x00000000        0x0 libbb/lib.a(default_error_retval.o)
 .bss           0x00000000        0x0 libbb/lib.a(default_error_retval.o)
 .note.GNU-stack
                0x00000000        0x0 libbb/lib.a(default_error_retval.o)
 .text          0x00000000        0x0 libbb/lib.a(error_msg_and_die.o)
 .data          0x00000000        0x0 libbb/lib.a(error_msg_and_die.o)
 .bss           0x00000000        0x0 libbb/lib.a(error_msg_and_die.o)
 .note.GNU-stack
                0x00000000        0x0 libbb/lib.a(error_msg_and_die.o)
 .text          0x00000000        0x0 libbb/lib.a(get_last_path_component.o)
 .data          0x00000000        0x0 libbb/lib.a(get_last_path_component.o)
 .bss           0x00000000        0x0 libbb/lib.a(get_last_path_component.o)
 .note.GNU-stack
                0x00000000        0x0 libbb/lib.a(get_last_path_component.o)
 .text          0x00000000        0x0 libbb/lib.a(last_char_is.o)
 .data          0x00000000        0x0 libbb/lib.a(last_char_is.o)
 .bss           0x00000000        0x0 libbb/lib.a(last_char_is.o)
 .note.GNU-stack
                0x00000000        0x0 libbb/lib.a(last_char_is.o)
 .text          0x00000000        0x0 libbb/lib.a(messages.o)
 .bss           0x00000000        0x0 libbb/lib.a(messages.o)
 .rodata.bb_hexdigits_upcase
                0x00000000       0x11 libbb/lib.a(messages.o)
 .rodata.bb_msg_unknown
                0x00000000        0xa libbb/lib.a(messages.o)
 .rodata.bb_path_shadow_file
                0x00000000        0xc libbb/lib.a(messages.o)
 .rodata.bb_path_group_file
                0x00000000        0xb libbb/lib.a(messages.o)
 .rodata.bb_path_motd_file
                0x00000000        0xa libbb/lib.a(messages.o)
 .rodata.bb_path_wtmp_file
                0x00000000        0xe libbb/lib.a(messages.o)
 .rodata.bb_path_gshadow_file
                0x00000000        0xd libbb/lib.a(messages.o)
 .rodata.bb_path_passwd_file
                0x00000000        0xc libbb/lib.a(messages.o)
 .rodata.bb_msg_standard_input
                0x00000000        0xf libbb/lib.a(messages.o)
 .rodata.bb_msg_invalid_arg
                0x00000000       0x1e libbb/lib.a(messages.o)
 .note.GNU-stack
                0x00000000        0x0 libbb/lib.a(messages.o)
 .text          0x00000000        0x0 libbb/lib.a(perror_msg.o)
 .data          0x00000000        0x0 libbb/lib.a(perror_msg.o)
 .bss           0x00000000        0x0 libbb/lib.a(perror_msg.o)
 .note.GNU-stack
                0x00000000        0x0 libbb/lib.a(perror_msg.o)
 .text          0x00000000        0x0 libbb/lib.a(verror_msg.o)
 .data          0x00000000        0x0 libbb/lib.a(verror_msg.o)
 .bss           0x00000000        0x0 libbb/lib.a(verror_msg.o)
 .note.GNU-stack
                0x00000000        0x0 libbb/lib.a(verror_msg.o)
 .text          0x00000000        0x0 libbb/lib.a(xfuncs.o)
 .data          0x00000000        0x0 libbb/lib.a(xfuncs.o)
 .bss           0x00000000        0x0 libbb/lib.a(xfuncs.o)
 .text.smart_ulltoa5
                0x00000000      0x1a4 libbb/lib.a(xfuncs.o)
 .text.utoa     0x00000000       0x2c libbb/lib.a(xfuncs.o)
 .text.bin2hex  0x00000000       0x5c libbb/lib.a(xfuncs.o)
 .text.selinux_or_die
                0x00000000       0x10 libbb/lib.a(xfuncs.o)
 .text.xlisten  0x00000000       0x20 libbb/lib.a(xfuncs.o)
 .text.xfflush_stdout
                0x00000000       0x2c libbb/lib.a(xfuncs.o)
 .text.fdlength
                0x00000000      0x1b4 libbb/lib.a(xfuncs.o)
 .text.sig_pause
                0x00000000       0x20 libbb/lib.a(xfuncs.o)
 .text.sig_catch
                0x00000000       0x3c libbb/lib.a(xfuncs.o)
 .text.sig_unblock
                0x00000000       0x38 libbb/lib.a(xfuncs.o)
 .text.sig_block
                0x00000000       0x38 libbb/lib.a(xfuncs.o)
 .text.die_if_ferror
                0x00000000       0x28 libbb/lib.a(xfuncs.o)
 .text.die_if_ferror_stdout
                0x00000000       0x18 libbb/lib.a(xfuncs.o)
 .text.ndelay_off
                0x00000000       0x28 libbb/lib.a(xfuncs.o)
 .text.xunlink  0x00000000       0x28 libbb/lib.a(xfuncs.o)
 .note.GNU-stack
                0x00000000        0x0 libbb/lib.a(xfuncs.o)
 .text          0x00000000        0x0 libbb/lib.a(xreadlink.o)
 .data          0x00000000        0x0 libbb/lib.a(xreadlink.o)
 .bss           0x00000000        0x0 libbb/lib.a(xreadlink.o)
 .text.xmalloc_follow_symlinks
                0x00000000       0xc4 libbb/lib.a(xreadlink.o)
 .note.GNU-stack
                0x00000000        0x0 libbb/lib.a(xreadlink.o)
 .text          0x00000000        0x0 libbb/lib.a(copyfd.o)
 .data          0x00000000        0x0 libbb/lib.a(copyfd.o)
 .bss           0x00000000        0x0 libbb/lib.a(copyfd.o)
 .text.bb_full_fd_action_tr143
                0x00000000       0xd4 libbb/lib.a(copyfd.o)
 .text.bb_copyfd_eof_tr143
                0x00000000        0x4 libbb/lib.a(copyfd.o)
 .note.GNU-stack
                0x00000000        0x0 libbb/lib.a(copyfd.o)
 .text          0x00000000        0x0 libbb/lib.a(error_msg.o)
 .data          0x00000000        0x0 libbb/lib.a(error_msg.o)
 .bss           0x00000000        0x0 libbb/lib.a(error_msg.o)
 .note.GNU-stack
                0x00000000        0x0 libbb/lib.a(error_msg.o)
 .text          0x00000000        0x0 libbb/lib.a(full_write.o)
 .data          0x00000000        0x0 libbb/lib.a(full_write.o)
 .bss           0x00000000        0x0 libbb/lib.a(full_write.o)
 .note.GNU-stack
                0x00000000        0x0 libbb/lib.a(full_write.o)
 .text          0x00000000        0x0 libbb/lib.a(perror_msg_and_die.o)
 .data          0x00000000        0x0 libbb/lib.a(perror_msg_and_die.o)
 .bss           0x00000000        0x0 libbb/lib.a(perror_msg_and_die.o)
 .note.GNU-stack
                0x00000000        0x0 libbb/lib.a(perror_msg_and_die.o)
 .text          0x00000000        0x0 libbb/lib.a(read.o)
 .data          0x00000000        0x0 libbb/lib.a(read.o)
 .bss           0x00000000        0x0 libbb/lib.a(read.o)
 .text.xmalloc_reads
                0x00000000       0xac libbb/lib.a(read.o)
 .text.reads    0x00000000       0x8c libbb/lib.a(read.o)
 .note.GNU-stack
                0x00000000        0x0 libbb/lib.a(read.o)
 .text          0x00000000        0x0 libbb/lib.a(safe_write.o)
 .data          0x00000000        0x0 libbb/lib.a(safe_write.o)
 .bss           0x00000000        0x0 libbb/lib.a(safe_write.o)
 .note.GNU-stack
                0x00000000        0x0 libbb/lib.a(safe_write.o)
 .text          0x00000000        0x0 loginutils/lib.a(su.o)
 .data          0x00000000        0x0 loginutils/lib.a(su.o)
 .bss           0x00000000        0x0 loginutils/lib.a(su.o)
 .note.GNU-stack
                0x00000000        0x0 loginutils/lib.a(su.o)
 .text          0x00000000        0x0 miscutils/lib.a(crond.o)
 .data          0x00000000        0x0 miscutils/lib.a(crond.o)
 .bss           0x00000000        0x0 miscutils/lib.a(crond.o)
 .note.GNU-stack
                0x00000000        0x0 miscutils/lib.a(crond.o)
 .text          0x00000000        0x0 miscutils/lib.a(crontab.o)
 .data          0x00000000        0x0 miscutils/lib.a(crontab.o)
 .bss           0x00000000        0x0 miscutils/lib.a(crontab.o)
 .note.GNU-stack
                0x00000000        0x0 miscutils/lib.a(crontab.o)
 .text          0x00000000        0x0 miscutils/lib.a(makedevs.o)
 .data          0x00000000        0x0 miscutils/lib.a(makedevs.o)
 .bss           0x00000000        0x0 miscutils/lib.a(makedevs.o)
 .note.GNU-stack
                0x00000000        0x0 miscutils/lib.a(makedevs.o)
 .text          0x00000000        0x0 miscutils/lib.a(taskset.o)
 .data          0x00000000        0x0 miscutils/lib.a(taskset.o)
 .bss           0x00000000        0x0 miscutils/lib.a(taskset.o)
 .note.GNU-stack
                0x00000000        0x0 miscutils/lib.a(taskset.o)
 .text          0x00000000        0x0 modutils/lib.a(insmod.o)
 .data          0x00000000        0x0 modutils/lib.a(insmod.o)
 .bss           0x00000000        0x0 modutils/lib.a(insmod.o)
 .note.GNU-stack
                0x00000000        0x0 modutils/lib.a(insmod.o)
 .text          0x00000000        0x0 networking/lib.a(ifconfig.o)
 .data          0x00000000        0x0 networking/lib.a(ifconfig.o)
 .bss           0x00000000        0x0 networking/lib.a(ifconfig.o)
 .note.GNU-stack
                0x00000000        0x0 networking/lib.a(ifconfig.o)
 .text          0x00000000        0x0 networking/lib.a(interface.o)
 .data          0x00000000        0x0 networking/lib.a(interface.o)
 .bss           0x00000000        0x0 networking/lib.a(interface.o)
 .note.GNU-stack
                0x00000000        0x0 networking/lib.a(interface.o)
 .text          0x00000000        0x0 networking/lib.a(netstat.o)
 .data          0x00000000        0x0 networking/lib.a(netstat.o)
 .bss           0x00000000        0x0 networking/lib.a(netstat.o)
 .note.GNU-stack
                0x00000000        0x0 networking/lib.a(netstat.o)
 .text          0x00000000        0x0 networking/lib.a(route.o)
 .data          0x00000000        0x0 networking/lib.a(route.o)
 .bss           0x00000000        0x0 networking/lib.a(route.o)
 .note.GNU-stack
                0x00000000        0x0 networking/lib.a(route.o)
 .text          0x00000000        0x0 networking/lib.a(smuxctl.o)
 .data          0x00000000        0x0 networking/lib.a(smuxctl.o)
 .bss           0x00000000        0x0 networking/lib.a(smuxctl.o)
 .note.GNU-stack
                0x00000000        0x0 networking/lib.a(smuxctl.o)
 .text          0x00000000        0x0 networking/lib.a(traceroute.o)
 .data          0x00000000        0x0 networking/lib.a(traceroute.o)
 .bss           0x00000000        0x0 networking/lib.a(traceroute.o)
 .note.GNU-stack
                0x00000000        0x0 networking/lib.a(traceroute.o)
 .text          0x00000000        0x0 networking/lib.a(vconfig.o)
 .data          0x00000000        0x0 networking/lib.a(vconfig.o)
 .bss           0x00000000        0x0 networking/lib.a(vconfig.o)
 .note.GNU-stack
                0x00000000        0x0 networking/lib.a(vconfig.o)
 .text          0x00000000        0x0 networking/lib.a(zcip.o)
 .data          0x00000000        0x0 networking/lib.a(zcip.o)
 .bss           0x00000000        0x0 networking/lib.a(zcip.o)
 .note.GNU-stack
                0x00000000        0x0 networking/lib.a(zcip.o)
 .text          0x00000000        0x0 networking/udhcp/lib.a(dhcpc.o)
 .data          0x00000000        0x0 networking/udhcp/lib.a(dhcpc.o)
 .bss           0x00000000        0x0 networking/udhcp/lib.a(dhcpc.o)
 .note.GNU-stack
                0x00000000        0x0 networking/udhcp/lib.a(dhcpc.o)
 .text          0x00000000        0x0 networking/udhcp/lib.a(dhcpd.o)
 .data          0x00000000        0x0 networking/udhcp/lib.a(dhcpd.o)
 .bss           0x00000000        0x0 networking/udhcp/lib.a(dhcpd.o)
 .note.GNU-stack
                0x00000000        0x0 networking/udhcp/lib.a(dhcpd.o)
 .text          0x00000000        0x0 networking/udhcp/lib.a(files.o)
 .data          0x00000000        0x0 networking/udhcp/lib.a(files.o)
 .bss           0x00000000        0x0 networking/udhcp/lib.a(files.o)
 .note.GNU-stack
                0x00000000        0x0 networking/udhcp/lib.a(files.o)
 .text          0x00000000        0x0 networking/udhcp/lib.a(leases.o)
 .data          0x00000000        0x0 networking/udhcp/lib.a(leases.o)
 .bss           0x00000000        0x0 networking/udhcp/lib.a(leases.o)
 .note.GNU-stack
                0x00000000        0x0 networking/udhcp/lib.a(leases.o)
 .text          0x00000000        0x0 networking/udhcp/lib.a(options.o)
 .data          0x00000000        0x0 networking/udhcp/lib.a(options.o)
 .bss           0x00000000        0x0 networking/udhcp/lib.a(options.o)
 .note.GNU-stack
                0x00000000        0x0 networking/udhcp/lib.a(options.o)
 .text          0x00000000        0x0 networking/udhcp/lib.a(packet.o)
 .data          0x00000000        0x0 networking/udhcp/lib.a(packet.o)
 .bss           0x00000000        0x0 networking/udhcp/lib.a(packet.o)
 .note.GNU-stack
                0x00000000        0x0 networking/udhcp/lib.a(packet.o)
 .text          0x00000000        0x0 networking/udhcp/lib.a(script.o)
 .data          0x00000000        0x0 networking/udhcp/lib.a(script.o)
 .bss           0x00000000        0x0 networking/udhcp/lib.a(script.o)
 .note.GNU-stack
                0x00000000        0x0 networking/udhcp/lib.a(script.o)
 .text          0x00000000        0x0 networking/udhcp/lib.a(serverpacket.o)
 .data          0x00000000        0x0 networking/udhcp/lib.a(serverpacket.o)
 .bss           0x00000000        0x0 networking/udhcp/lib.a(serverpacket.o)
 .note.GNU-stack
                0x00000000        0x0 networking/udhcp/lib.a(serverpacket.o)
 .text          0x00000000        0x0 networking/udhcp/lib.a(signalpipe.o)
 .data          0x00000000        0x0 networking/udhcp/lib.a(signalpipe.o)
 .bss           0x00000000        0x0 networking/udhcp/lib.a(signalpipe.o)
 .note.GNU-stack
                0x00000000        0x0 networking/udhcp/lib.a(signalpipe.o)
 .text          0x00000000        0x0 networking/udhcp/lib.a(socket.o)
 .data          0x00000000        0x0 networking/udhcp/lib.a(socket.o)
 .bss           0x00000000        0x0 networking/udhcp/lib.a(socket.o)
 .note.GNU-stack
                0x00000000        0x0 networking/udhcp/lib.a(socket.o)
 .text          0x00000000        0x0 networking/udhcp/lib.a(static_leases.o)
 .data          0x00000000        0x0 networking/udhcp/lib.a(static_leases.o)
 .bss           0x00000000        0x0 networking/udhcp/lib.a(static_leases.o)
 .note.GNU-stack
                0x00000000        0x0 networking/udhcp/lib.a(static_leases.o)
 .text          0x00000000        0x0 networking/udhcp/lib.a(arpping.o)
 .data          0x00000000        0x0 networking/udhcp/lib.a(arpping.o)
 .bss           0x00000000        0x0 networking/udhcp/lib.a(arpping.o)
 .note.GNU-stack
                0x00000000        0x0 networking/udhcp/lib.a(arpping.o)
 .text          0x00000000        0x0 networking/udhcp/lib.a(clientpacket.o)
 .data          0x00000000        0x0 networking/udhcp/lib.a(clientpacket.o)
 .bss           0x00000000        0x0 networking/udhcp/lib.a(clientpacket.o)
 .note.GNU-stack
                0x00000000        0x0 networking/udhcp/lib.a(clientpacket.o)
 .text          0x00000000        0x0 networking/udhcp/lib.a(clientsocket.o)
 .data          0x00000000        0x0 networking/udhcp/lib.a(clientsocket.o)
 .bss           0x00000000        0x0 networking/udhcp/lib.a(clientsocket.o)
 .note.GNU-stack
                0x00000000        0x0 networking/udhcp/lib.a(clientsocket.o)
 .text          0x00000000        0x0 networking/udhcp/lib.a(common.o)
 .data          0x00000000        0x0 networking/udhcp/lib.a(common.o)
 .bss           0x00000000        0x0 networking/udhcp/lib.a(common.o)
 .note.GNU-stack
                0x00000000        0x0 networking/udhcp/lib.a(common.o)
 .text          0x00000000        0x0 procps/lib.a(kill.o)
 .data          0x00000000        0x0 procps/lib.a(kill.o)
 .bss           0x00000000        0x0 procps/lib.a(kill.o)
 .note.GNU-stack
                0x00000000        0x0 procps/lib.a(kill.o)
 .text          0x00000000        0x0 procps/lib.a(ps.o)
 .data          0x00000000        0x0 procps/lib.a(ps.o)
 .bss           0x00000000        0x0 procps/lib.a(ps.o)
 .note.GNU-stack
                0x00000000        0x0 procps/lib.a(ps.o)
 .text          0x00000000        0x0 procps/lib.a(renice.o)
 .data          0x00000000        0x0 procps/lib.a(renice.o)
 .bss           0x00000000        0x0 procps/lib.a(renice.o)
 .note.GNU-stack
                0x00000000        0x0 procps/lib.a(renice.o)
 .text          0x00000000        0x0 procps/lib.a(top.o)
 .data          0x00000000        0x0 procps/lib.a(top.o)
 .bss           0x00000000        0x0 procps/lib.a(top.o)
 .note.GNU-stack
                0x00000000        0x0 procps/lib.a(top.o)
 .text          0x00000000        0x0 shell/lib.a(ash.o)
 .bss           0x00000000        0x0 shell/lib.a(ash.o)
 .note.GNU-stack
                0x00000000        0x0 shell/lib.a(ash.o)
 .text          0x00000000        0x0 util-linux/lib.a(mount.o)
 .data          0x00000000        0x0 util-linux/lib.a(mount.o)
 .bss           0x00000000        0x0 util-linux/lib.a(mount.o)
 .note.GNU-stack
                0x00000000        0x0 util-linux/lib.a(mount.o)
 .text          0x00000000        0x0 util-linux/lib.a(umount.o)
 .data          0x00000000        0x0 util-linux/lib.a(umount.o)
 .bss           0x00000000        0x0 util-linux/lib.a(umount.o)
 .note.GNU-stack
                0x00000000        0x0 util-linux/lib.a(umount.o)
 .text          0x00000000        0x0 atpconfig/lib.a(arp.o)
 .data          0x00000000        0x0 atpconfig/lib.a(arp.o)
 .bss           0x00000000        0x0 atpconfig/lib.a(arp.o)
 .note.GNU-stack
                0x00000000        0x0 atpconfig/lib.a(arp.o)
 .text          0x00000000        0x0 atpconfig/lib.a(atpcommon.o)
 .data          0x00000000        0x0 atpconfig/lib.a(atpcommon.o)
 .bss           0x00000000        0x0 atpconfig/lib.a(atpcommon.o)
 .rodata.bb_transtool_long_options
                0x00000000       0x5b atpconfig/lib.a(atpcommon.o)
 .note.GNU-stack
                0x00000000        0x0 atpconfig/lib.a(atpcommon.o)
 .text          0x00000000        0x0 atpconfig/lib.a(ftpgetput.o)
 .data          0x00000000        0x0 atpconfig/lib.a(ftpgetput.o)
 .bss           0x00000000        0x0 atpconfig/lib.a(ftpgetput.o)
 .note.GNU-stack
                0x00000000        0x0 atpconfig/lib.a(ftpgetput.o)
 .text          0x00000000        0x0 atpconfig/lib.a(gplgethostbyname.o)
 .data          0x00000000        0x0 atpconfig/lib.a(gplgethostbyname.o)
 .bss           0x00000000        0x0 atpconfig/lib.a(gplgethostbyname.o)
 .text.atp_gethostbyname
                0x00000000       0x48 atpconfig/lib.a(gplgethostbyname.o)
 .bss.buf.5842  0x00000000      0x1cc atpconfig/lib.a(gplgethostbyname.o)
 .bss.h.5841    0x00000000       0x14 atpconfig/lib.a(gplgethostbyname.o)
 .note.GNU-stack
                0x00000000        0x0 atpconfig/lib.a(gplgethostbyname.o)
 .text          0x00000000        0x0 atpconfig/lib.a(ping.o)
 .data          0x00000000        0x0 atpconfig/lib.a(ping.o)
 .bss           0x00000000        0x0 atpconfig/lib.a(ping.o)
 .note.GNU-stack
                0x00000000        0x0 atpconfig/lib.a(ping.o)
 .text          0x00000000        0x0 atpconfig/lib.a(traceroute6.o)
 .data          0x00000000        0x0 atpconfig/lib.a(traceroute6.o)
 .bss           0x00000000        0x0 atpconfig/lib.a(traceroute6.o)
 .text.tvsub    0x00000000       0x40 atpconfig/lib.a(traceroute6.o)
 .data.copyright
                0x00000000       0x64 atpconfig/lib.a(traceroute6.o)
 .note.GNU-stack
                0x00000000        0x0 atpconfig/lib.a(traceroute6.o)
 .text          0x00000000        0x0 atpconfig/lib.a(wget.o)
 .data          0x00000000        0x0 atpconfig/lib.a(wget.o)
 .bss           0x00000000        0x0 atpconfig/lib.a(wget.o)
 .note.GNU-stack
                0x00000000        0x0 atpconfig/lib.a(wget.o)
 .text          0x00000000        0x0 archival/lib.a(tar.o)
 .data          0x00000000        0x0 archival/lib.a(tar.o)
 .bss           0x00000000        0x0 archival/lib.a(tar.o)
 .note.GNU-stack
                0x00000000        0x0 archival/lib.a(tar.o)
 .text          0x00000000        0x0 archival/libunarchive/lib.a(data_extract_all.o)
 .data          0x00000000        0x0 archival/libunarchive/lib.a(data_extract_all.o)
 .bss           0x00000000        0x0 archival/libunarchive/lib.a(data_extract_all.o)
 .note.GNU-stack
                0x00000000        0x0 archival/libunarchive/lib.a(data_extract_all.o)
 .text          0x00000000        0x0 archival/libunarchive/lib.a(data_extract_to_stdout.o)
 .data          0x00000000        0x0 archival/libunarchive/lib.a(data_extract_to_stdout.o)
 .bss           0x00000000        0x0 archival/libunarchive/lib.a(data_extract_to_stdout.o)
 .note.GNU-stack
                0x00000000        0x0 archival/libunarchive/lib.a(data_extract_to_stdout.o)
 .text          0x00000000        0x0 archival/libunarchive/lib.a(data_skip.o)
 .data          0x00000000        0x0 archival/libunarchive/lib.a(data_skip.o)
 .bss           0x00000000        0x0 archival/libunarchive/lib.a(data_skip.o)
 .note.GNU-stack
                0x00000000        0x0 archival/libunarchive/lib.a(data_skip.o)
 .text          0x00000000        0x0 archival/libunarchive/lib.a(decompress_bunzip2.o)
 .data          0x00000000        0x0 archival/libunarchive/lib.a(decompress_bunzip2.o)
 .bss           0x00000000        0x0 archival/libunarchive/lib.a(decompress_bunzip2.o)
 .note.GNU-stack
                0x00000000        0x0 archival/libunarchive/lib.a(decompress_bunzip2.o)
 .text          0x00000000        0x0 archival/libunarchive/lib.a(decompress_uncompress.o)
 .data          0x00000000        0x0 archival/libunarchive/lib.a(decompress_uncompress.o)
 .bss           0x00000000        0x0 archival/libunarchive/lib.a(decompress_uncompress.o)
 .note.GNU-stack
                0x00000000        0x0 archival/libunarchive/lib.a(decompress_uncompress.o)
 .text          0x00000000        0x0 archival/libunarchive/lib.a(filter_accept_reject_list.o)
 .data          0x00000000        0x0 archival/libunarchive/lib.a(filter_accept_reject_list.o)
 .bss           0x00000000        0x0 archival/libunarchive/lib.a(filter_accept_reject_list.o)
 .note.GNU-stack
                0x00000000        0x0 archival/libunarchive/lib.a(filter_accept_reject_list.o)
 .text          0x00000000        0x0 archival/libunarchive/lib.a(find_list_entry.o)
 .data          0x00000000        0x0 archival/libunarchive/lib.a(find_list_entry.o)
 .bss           0x00000000        0x0 archival/libunarchive/lib.a(find_list_entry.o)
 .note.GNU-stack
                0x00000000        0x0 archival/libunarchive/lib.a(find_list_entry.o)
 .text          0x00000000        0x0 archival/libunarchive/lib.a(get_header_tar.o)
 .data          0x00000000        0x0 archival/libunarchive/lib.a(get_header_tar.o)
 .bss           0x00000000        0x0 archival/libunarchive/lib.a(get_header_tar.o)
 .note.GNU-stack
                0x00000000        0x0 archival/libunarchive/lib.a(get_header_tar.o)
 .text          0x00000000        0x0 archival/libunarchive/lib.a(get_header_tar_bz2.o)
 .data          0x00000000        0x0 archival/libunarchive/lib.a(get_header_tar_bz2.o)
 .bss           0x00000000        0x0 archival/libunarchive/lib.a(get_header_tar_bz2.o)
 .note.GNU-stack
                0x00000000        0x0 archival/libunarchive/lib.a(get_header_tar_bz2.o)
 .text          0x00000000        0x0 archival/libunarchive/lib.a(get_header_tar_gz.o)
 .data          0x00000000        0x0 archival/libunarchive/lib.a(get_header_tar_gz.o)
 .bss           0x00000000        0x0 archival/libunarchive/lib.a(get_header_tar_gz.o)
 .note.GNU-stack
                0x00000000        0x0 archival/libunarchive/lib.a(get_header_tar_gz.o)
 .text          0x00000000        0x0 archival/libunarchive/lib.a(header_list.o)
 .data          0x00000000        0x0 archival/libunarchive/lib.a(header_list.o)
 .bss           0x00000000        0x0 archival/libunarchive/lib.a(header_list.o)
 .note.GNU-stack
                0x00000000        0x0 archival/libunarchive/lib.a(header_list.o)
 .text          0x00000000        0x0 archival/libunarchive/lib.a(header_verbose_list.o)
 .data          0x00000000        0x0 archival/libunarchive/lib.a(header_verbose_list.o)
 .bss           0x00000000        0x0 archival/libunarchive/lib.a(header_verbose_list.o)
 .note.GNU-stack
                0x00000000        0x0 archival/libunarchive/lib.a(header_verbose_list.o)
 .text          0x00000000        0x0 archival/libunarchive/lib.a(init_handle.o)
 .data          0x00000000        0x0 archival/libunarchive/lib.a(init_handle.o)
 .bss           0x00000000        0x0 archival/libunarchive/lib.a(init_handle.o)
 .note.GNU-stack
                0x00000000        0x0 archival/libunarchive/lib.a(init_handle.o)
 .text          0x00000000        0x0 archival/libunarchive/lib.a(open_transformer.o)
 .data          0x00000000        0x0 archival/libunarchive/lib.a(open_transformer.o)
 .bss           0x00000000        0x0 archival/libunarchive/lib.a(open_transformer.o)
 .note.GNU-stack
                0x00000000        0x0 archival/libunarchive/lib.a(open_transformer.o)
 .text          0x00000000        0x0 archival/libunarchive/lib.a(seek_by_jump.o)
 .data          0x00000000        0x0 archival/libunarchive/lib.a(seek_by_jump.o)
 .bss           0x00000000        0x0 archival/libunarchive/lib.a(seek_by_jump.o)
 .note.GNU-stack
                0x00000000        0x0 archival/libunarchive/lib.a(seek_by_jump.o)
 .text          0x00000000        0x0 archival/libunarchive/lib.a(seek_by_read.o)
 .data          0x00000000        0x0 archival/libunarchive/lib.a(seek_by_read.o)
 .bss           0x00000000        0x0 archival/libunarchive/lib.a(seek_by_read.o)
 .note.GNU-stack
                0x00000000        0x0 archival/libunarchive/lib.a(seek_by_read.o)
 .text          0x00000000        0x0 archival/libunarchive/lib.a(data_align.o)
 .data          0x00000000        0x0 archival/libunarchive/lib.a(data_align.o)
 .bss           0x00000000        0x0 archival/libunarchive/lib.a(data_align.o)
 .note.GNU-stack
                0x00000000        0x0 archival/libunarchive/lib.a(data_align.o)
 .text          0x00000000        0x0 archival/libunarchive/lib.a(decompress_unzip.o)
 .data          0x00000000        0x0 archival/libunarchive/lib.a(decompress_unzip.o)
 .bss           0x00000000        0x0 archival/libunarchive/lib.a(decompress_unzip.o)
 .text.inflate_unzip
                0x00000000       0x78 archival/libunarchive/lib.a(decompress_unzip.o)
 .note.GNU-stack
                0x00000000        0x0 archival/libunarchive/lib.a(decompress_unzip.o)
 .text          0x00000000        0x0 archival/libunarchive/lib.a(filter_accept_all.o)
 .data          0x00000000        0x0 archival/libunarchive/lib.a(filter_accept_all.o)
 .bss           0x00000000        0x0 archival/libunarchive/lib.a(filter_accept_all.o)
 .note.GNU-stack
                0x00000000        0x0 archival/libunarchive/lib.a(filter_accept_all.o)
 .text          0x00000000        0x0 archival/libunarchive/lib.a(header_skip.o)
 .data          0x00000000        0x0 archival/libunarchive/lib.a(header_skip.o)
 .bss           0x00000000        0x0 archival/libunarchive/lib.a(header_skip.o)
 .note.GNU-stack
                0x00000000        0x0 archival/libunarchive/lib.a(header_skip.o)
 .text          0x00000000        0x0 console-tools/lib.a(setconsole.o)
 .data          0x00000000        0x0 console-tools/lib.a(setconsole.o)
 .bss           0x00000000        0x0 console-tools/lib.a(setconsole.o)
 .note.GNU-stack
                0x00000000        0x0 console-tools/lib.a(setconsole.o)
 .text          0x00000000        0x0 coreutils/lib.a(cat.o)
 .data          0x00000000        0x0 coreutils/lib.a(cat.o)
 .bss           0x00000000        0x0 coreutils/lib.a(cat.o)
 .note.GNU-stack
                0x00000000        0x0 coreutils/lib.a(cat.o)
 .text          0x00000000        0x0 coreutils/lib.a(chmod.o)
 .data          0x00000000        0x0 coreutils/lib.a(chmod.o)
 .bss           0x00000000        0x0 coreutils/lib.a(chmod.o)
 .note.GNU-stack
                0x00000000        0x0 coreutils/lib.a(chmod.o)
 .text          0x00000000        0x0 coreutils/lib.a(cp.o)
 .data          0x00000000        0x0 coreutils/lib.a(cp.o)
 .bss           0x00000000        0x0 coreutils/lib.a(cp.o)
 .note.GNU-stack
                0x00000000        0x0 coreutils/lib.a(cp.o)
 .text          0x00000000        0x0 coreutils/lib.a(date.o)
 .data          0x00000000        0x0 coreutils/lib.a(date.o)
 .bss           0x00000000        0x0 coreutils/lib.a(date.o)
 .note.GNU-stack
                0x00000000        0x0 coreutils/lib.a(date.o)
 .text          0x00000000        0x0 coreutils/lib.a(echo.o)
 .data          0x00000000        0x0 coreutils/lib.a(echo.o)
 .bss           0x00000000        0x0 coreutils/lib.a(echo.o)
 .note.GNU-stack
                0x00000000        0x0 coreutils/lib.a(echo.o)
 .text          0x00000000        0x0 coreutils/lib.a(ls.o)
 .data          0x00000000        0x0 coreutils/lib.a(ls.o)
 .bss           0x00000000        0x0 coreutils/lib.a(ls.o)
 .note.GNU-stack
                0x00000000        0x0 coreutils/lib.a(ls.o)
 .text          0x00000000        0x0 coreutils/lib.a(mkdir.o)
 .data          0x00000000        0x0 coreutils/lib.a(mkdir.o)
 .bss           0x00000000        0x0 coreutils/lib.a(mkdir.o)
 .note.GNU-stack
                0x00000000        0x0 coreutils/lib.a(mkdir.o)
 .text          0x00000000        0x0 coreutils/lib.a(mknod.o)
 .data          0x00000000        0x0 coreutils/lib.a(mknod.o)
 .bss           0x00000000        0x0 coreutils/lib.a(mknod.o)
 .note.GNU-stack
                0x00000000        0x0 coreutils/lib.a(mknod.o)
 .text          0x00000000        0x0 coreutils/lib.a(mv.o)
 .data          0x00000000        0x0 coreutils/lib.a(mv.o)
 .bss           0x00000000        0x0 coreutils/lib.a(mv.o)
 .note.GNU-stack
                0x00000000        0x0 coreutils/lib.a(mv.o)
 .text          0x00000000        0x0 coreutils/lib.a(rm.o)
 .data          0x00000000        0x0 coreutils/lib.a(rm.o)
 .bss           0x00000000        0x0 coreutils/lib.a(rm.o)
 .note.GNU-stack
                0x00000000        0x0 coreutils/lib.a(rm.o)
 .text          0x00000000        0x0 coreutils/lib.a(sleep.o)
 .data          0x00000000        0x0 coreutils/lib.a(sleep.o)
 .bss           0x00000000        0x0 coreutils/lib.a(sleep.o)
 .note.GNU-stack
                0x00000000        0x0 coreutils/lib.a(sleep.o)
 .text          0x00000000        0x0 coreutils/lib.a(test.o)
 .bss           0x00000000        0x0 coreutils/lib.a(test.o)
 .note.GNU-stack
                0x00000000        0x0 coreutils/lib.a(test.o)
 .text          0x00000000        0x0 coreutils/lib.a(usleep.o)
 .data          0x00000000        0x0 coreutils/lib.a(usleep.o)
 .bss           0x00000000        0x0 coreutils/lib.a(usleep.o)
 .note.GNU-stack
                0x00000000        0x0 coreutils/lib.a(usleep.o)
 .text          0x00000000        0x0 coreutils/libcoreutils/lib.a(cp_mv_stat.o)
 .data          0x00000000        0x0 coreutils/libcoreutils/lib.a(cp_mv_stat.o)
 .bss           0x00000000        0x0 coreutils/libcoreutils/lib.a(cp_mv_stat.o)
 .note.GNU-stack
                0x00000000        0x0 coreutils/libcoreutils/lib.a(cp_mv_stat.o)
 .text          0x00000000        0x0 coreutils/libcoreutils/lib.a(getopt_mk_fifo_nod.o)
 .data          0x00000000        0x0 coreutils/libcoreutils/lib.a(getopt_mk_fifo_nod.o)
 .bss           0x00000000        0x0 coreutils/libcoreutils/lib.a(getopt_mk_fifo_nod.o)
 .note.GNU-stack
                0x00000000        0x0 coreutils/libcoreutils/lib.a(getopt_mk_fifo_nod.o)
 .text          0x00000000        0x0 debianutils/lib.a(start_stop_daemon.o)
 .data          0x00000000        0x0 debianutils/lib.a(start_stop_daemon.o)
 .bss           0x00000000        0x0 debianutils/lib.a(start_stop_daemon.o)
 .note.GNU-stack
                0x00000000        0x0 debianutils/lib.a(start_stop_daemon.o)
 .text          0x00000000        0x0 editors/lib.a(awk.o)
 .data          0x00000000        0x0 editors/lib.a(awk.o)
 .bss           0x00000000        0x0 editors/lib.a(awk.o)
 .note.GNU-stack
                0x00000000        0x0 editors/lib.a(awk.o)
 .text          0x00000000        0x0 editors/lib.a(diff.o)
 .data          0x00000000        0x0 editors/lib.a(diff.o)
 .bss           0x00000000        0x0 editors/lib.a(diff.o)
 .note.GNU-stack
                0x00000000        0x0 editors/lib.a(diff.o)
 .text          0x00000000        0x0 editors/lib.a(sed.o)
 .data          0x00000000        0x0 editors/lib.a(sed.o)
 .bss           0x00000000        0x0 editors/lib.a(sed.o)
 .note.GNU-stack
                0x00000000        0x0 editors/lib.a(sed.o)
 .text          0x00000000        0x0 findutils/lib.a(grep.o)
 .data          0x00000000        0x0 findutils/lib.a(grep.o)
 .bss           0x00000000        0x0 findutils/lib.a(grep.o)
 .note.GNU-stack
                0x00000000        0x0 findutils/lib.a(grep.o)
 .text          0x00000000        0x0 init/lib.a(halt.o)
 .data          0x00000000        0x0 init/lib.a(halt.o)
 .bss           0x00000000        0x0 init/lib.a(halt.o)
 .note.GNU-stack
                0x00000000        0x0 init/lib.a(halt.o)
 .text          0x00000000        0x0 init/lib.a(init.o)
 .data          0x00000000        0x0 init/lib.a(init.o)
 .bss           0x00000000        0x0 init/lib.a(init.o)
 .note.GNU-stack
                0x00000000        0x0 init/lib.a(init.o)
 .text          0x00000000        0x0 libbb/lib.a(ask_confirmation.o)
 .data          0x00000000        0x0 libbb/lib.a(ask_confirmation.o)
 .bss           0x00000000        0x0 libbb/lib.a(ask_confirmation.o)
 .note.GNU-stack
                0x00000000        0x0 libbb/lib.a(ask_confirmation.o)
 .text          0x00000000        0x0 libbb/lib.a(bb_pwd.o)
 .data          0x00000000        0x0 libbb/lib.a(bb_pwd.o)
 .bss           0x00000000        0x0 libbb/lib.a(bb_pwd.o)
 .note.GNU-stack
                0x00000000        0x0 libbb/lib.a(bb_pwd.o)
 .text          0x00000000        0x0 libbb/lib.a(bb_strtonum.o)
 .data          0x00000000        0x0 libbb/lib.a(bb_strtonum.o)
 .bss           0x00000000        0x0 libbb/lib.a(bb_strtonum.o)
 .text.bb_strtoll
                0x00000000       0x68 libbb/lib.a(bb_strtonum.o)
 .note.GNU-stack
                0x00000000        0x0 libbb/lib.a(bb_strtonum.o)
 .text          0x00000000        0x0 libbb/lib.a(change_identity.o)
 .data          0x00000000        0x0 libbb/lib.a(change_identity.o)
 .bss           0x00000000        0x0 libbb/lib.a(change_identity.o)
 .note.GNU-stack
                0x00000000        0x0 libbb/lib.a(change_identity.o)
 .text          0x00000000        0x0 libbb/lib.a(compare_string_array.o)
 .data          0x00000000        0x0 libbb/lib.a(compare_string_array.o)
 .bss           0x00000000        0x0 libbb/lib.a(compare_string_array.o)
 .text.nth_string
                0x00000000       0x38 libbb/lib.a(compare_string_array.o)
 .text.index_in_substrings
                0x00000000       0x6c libbb/lib.a(compare_string_array.o)
 .text.index_in_str_array
                0x00000000       0x44 libbb/lib.a(compare_string_array.o)
 .note.GNU-stack
                0x00000000        0x0 libbb/lib.a(compare_string_array.o)
 .text          0x00000000        0x0 libbb/lib.a(copy_file.o)
 .data          0x00000000        0x0 libbb/lib.a(copy_file.o)
 .bss           0x00000000        0x0 libbb/lib.a(copy_file.o)
 .note.GNU-stack
                0x00000000        0x0 libbb/lib.a(copy_file.o)
 .text          0x00000000        0x0 libbb/lib.a(correct_password.o)
 .data          0x00000000        0x0 libbb/lib.a(correct_password.o)
 .bss           0x00000000        0x0 libbb/lib.a(correct_password.o)
 .note.GNU-stack
                0x00000000        0x0 libbb/lib.a(correct_password.o)
 .text          0x00000000        0x0 libbb/lib.a(crc32.o)
 .data          0x00000000        0x0 libbb/lib.a(crc32.o)
 .bss           0x00000000        0x0 libbb/lib.a(crc32.o)
 .note.GNU-stack
                0x00000000        0x0 libbb/lib.a(crc32.o)
 .text          0x00000000        0x0 libbb/lib.a(create_icmp6_socket.o)
 .data          0x00000000        0x0 libbb/lib.a(create_icmp6_socket.o)
 .bss           0x00000000        0x0 libbb/lib.a(create_icmp6_socket.o)
 .note.GNU-stack
                0x00000000        0x0 libbb/lib.a(create_icmp6_socket.o)
 .text          0x00000000        0x0 libbb/lib.a(create_icmp_socket.o)
 .data          0x00000000        0x0 libbb/lib.a(create_icmp_socket.o)
 .bss           0x00000000        0x0 libbb/lib.a(create_icmp_socket.o)
 .note.GNU-stack
                0x00000000        0x0 libbb/lib.a(create_icmp_socket.o)
 .text          0x00000000        0x0 libbb/lib.a(device_open.o)
 .data          0x00000000        0x0 libbb/lib.a(device_open.o)
 .bss           0x00000000        0x0 libbb/lib.a(device_open.o)
 .note.GNU-stack
                0x00000000        0x0 libbb/lib.a(device_open.o)
 .text          0x00000000        0x0 libbb/lib.a(execable.o)
 .data          0x00000000        0x0 libbb/lib.a(execable.o)
 .bss           0x00000000        0x0 libbb/lib.a(execable.o)
 .text.execable_file
                0x00000000       0x58 libbb/lib.a(execable.o)
 .text.find_execable
                0x00000000       0x8c libbb/lib.a(execable.o)
 .text.exists_execable
                0x00000000       0x24 libbb/lib.a(execable.o)
 .rodata.str1.1
                0x00000000        0x5 libbb/lib.a(execable.o)
 .note.GNU-stack
                0x00000000        0x0 libbb/lib.a(execable.o)
 .text          0x00000000        0x0 libbb/lib.a(fclose_nonstdin.o)
 .data          0x00000000        0x0 libbb/lib.a(fclose_nonstdin.o)
 .bss           0x00000000        0x0 libbb/lib.a(fclose_nonstdin.o)
 .note.GNU-stack
                0x00000000        0x0 libbb/lib.a(fclose_nonstdin.o)
 .text          0x00000000        0x0 libbb/lib.a(fflush_stdout_and_exit.o)
 .data          0x00000000        0x0 libbb/lib.a(fflush_stdout_and_exit.o)
 .bss           0x00000000        0x0 libbb/lib.a(fflush_stdout_and_exit.o)
 .note.GNU-stack
                0x00000000        0x0 libbb/lib.a(fflush_stdout_and_exit.o)
 .text          0x00000000        0x0 libbb/lib.a(find_pid_by_name.o)
 .data          0x00000000        0x0 libbb/lib.a(find_pid_by_name.o)
 .bss           0x00000000        0x0 libbb/lib.a(find_pid_by_name.o)
 .text.pidlist_reverse
                0x00000000       0x60 libbb/lib.a(find_pid_by_name.o)
 .note.GNU-stack
                0x00000000        0x0 libbb/lib.a(find_pid_by_name.o)
 .text          0x00000000        0x0 libbb/lib.a(get_line_from_file.o)
 .data          0x00000000        0x0 libbb/lib.a(get_line_from_file.o)
 .bss           0x00000000        0x0 libbb/lib.a(get_line_from_file.o)
 .note.GNU-stack
                0x00000000        0x0 libbb/lib.a(get_line_from_file.o)
 .text          0x00000000        0x0 libbb/lib.a(getopt32.o)
 .data          0x00000000        0x0 libbb/lib.a(getopt32.o)
 .bss           0x00000000        0x0 libbb/lib.a(getopt32.o)
 .note.GNU-stack
                0x00000000        0x0 libbb/lib.a(getopt32.o)
 .text          0x00000000        0x0 libbb/lib.a(herror_msg_and_die.o)
 .data          0x00000000        0x0 libbb/lib.a(herror_msg_and_die.o)
 .bss           0x00000000        0x0 libbb/lib.a(herror_msg_and_die.o)
 .note.GNU-stack
                0x00000000        0x0 libbb/lib.a(herror_msg_and_die.o)
 .text          0x00000000        0x0 libbb/lib.a(inet_common.o)
 .data          0x00000000        0x0 libbb/lib.a(inet_common.o)
 .bss           0x00000000        0x0 libbb/lib.a(inet_common.o)
 .note.GNU-stack
                0x00000000        0x0 libbb/lib.a(inet_common.o)
 .text          0x00000000        0x0 libbb/lib.a(info_msg.o)
 .data          0x00000000        0x0 libbb/lib.a(info_msg.o)
 .bss           0x00000000        0x0 libbb/lib.a(info_msg.o)
 .note.GNU-stack
                0x00000000        0x0 libbb/lib.a(info_msg.o)
 .text          0x00000000        0x0 libbb/lib.a(inode_hash.o)
 .data          0x00000000        0x0 libbb/lib.a(inode_hash.o)
 .bss           0x00000000        0x0 libbb/lib.a(inode_hash.o)
 .note.GNU-stack
                0x00000000        0x0 libbb/lib.a(inode_hash.o)
 .text          0x00000000        0x0 libbb/lib.a(lineedit.o)
 .bss           0x00000000        0x0 libbb/lib.a(lineedit.o)
 .note.GNU-stack
                0x00000000        0x0 libbb/lib.a(lineedit.o)
 .text          0x00000000        0x0 libbb/lib.a(llist.o)
 .data          0x00000000        0x0 libbb/lib.a(llist.o)
 .bss           0x00000000        0x0 libbb/lib.a(llist.o)
 .text.llist_unlink
                0x00000000       0x50 libbb/lib.a(llist.o)
 .text.llist_free
                0x00000000       0x3c libbb/lib.a(llist.o)
 .note.GNU-stack
                0x00000000        0x0 libbb/lib.a(llist.o)
 .text          0x00000000        0x0 libbb/lib.a(make_directory.o)
 .data          0x00000000        0x0 libbb/lib.a(make_directory.o)
 .bss           0x00000000        0x0 libbb/lib.a(make_directory.o)
 .note.GNU-stack
                0x00000000        0x0 libbb/lib.a(make_directory.o)
 .text          0x00000000        0x0 libbb/lib.a(makedev.o)
 .data          0x00000000        0x0 libbb/lib.a(makedev.o)
 .bss           0x00000000        0x0 libbb/lib.a(makedev.o)
 .note.GNU-stack
                0x00000000        0x0 libbb/lib.a(makedev.o)
 .text          0x00000000        0x0 libbb/lib.a(match_fstype.o)
 .data          0x00000000        0x0 libbb/lib.a(match_fstype.o)
 .bss           0x00000000        0x0 libbb/lib.a(match_fstype.o)
 .note.GNU-stack
                0x00000000        0x0 libbb/lib.a(match_fstype.o)
 .text          0x00000000        0x0 libbb/lib.a(mode_string.o)
 .data          0x00000000        0x0 libbb/lib.a(mode_string.o)
 .bss           0x00000000        0x0 libbb/lib.a(mode_string.o)
 .note.GNU-stack
                0x00000000        0x0 libbb/lib.a(mode_string.o)
 .text          0x00000000        0x0 libbb/lib.a(mtab_file.o)
 .data          0x00000000        0x0 libbb/lib.a(mtab_file.o)
 .bss           0x00000000        0x0 libbb/lib.a(mtab_file.o)
 .note.GNU-stack
                0x00000000        0x0 libbb/lib.a(mtab_file.o)
 .text          0x00000000        0x0 libbb/lib.a(parse_mode.o)
 .data          0x00000000        0x0 libbb/lib.a(parse_mode.o)
 .bss           0x00000000        0x0 libbb/lib.a(parse_mode.o)
 .note.GNU-stack
                0x00000000        0x0 libbb/lib.a(parse_mode.o)
 .text          0x00000000        0x0 libbb/lib.a(perror_nomsg_and_die.o)
 .data          0x00000000        0x0 libbb/lib.a(perror_nomsg_and_die.o)
 .bss           0x00000000        0x0 libbb/lib.a(perror_nomsg_and_die.o)
 .note.GNU-stack
                0x00000000        0x0 libbb/lib.a(perror_nomsg_and_die.o)
 .text          0x00000000        0x0 libbb/lib.a(pidfile.o)
 .data          0x00000000        0x0 libbb/lib.a(pidfile.o)
 .bss           0x00000000        0x0 libbb/lib.a(pidfile.o)
 .note.GNU-stack
                0x00000000        0x0 libbb/lib.a(pidfile.o)
 .text          0x00000000        0x0 libbb/lib.a(process_escape_sequence.o)
 .data          0x00000000        0x0 libbb/lib.a(process_escape_sequence.o)
 .bss           0x00000000        0x0 libbb/lib.a(process_escape_sequence.o)
 .note.GNU-stack
                0x00000000        0x0 libbb/lib.a(process_escape_sequence.o)
 .text          0x00000000        0x0 libbb/lib.a(procps.o)
 .data          0x00000000        0x0 libbb/lib.a(procps.o)
 .bss           0x00000000        0x0 libbb/lib.a(procps.o)
 .note.GNU-stack
                0x00000000        0x0 libbb/lib.a(procps.o)
 .text          0x00000000        0x0 libbb/lib.a(recursive_action.o)
 .data          0x00000000        0x0 libbb/lib.a(recursive_action.o)
 .bss           0x00000000        0x0 libbb/lib.a(recursive_action.o)
 .note.GNU-stack
                0x00000000        0x0 libbb/lib.a(recursive_action.o)
 .text          0x00000000        0x0 libbb/lib.a(remove_file.o)
 .data          0x00000000        0x0 libbb/lib.a(remove_file.o)
 .bss           0x00000000        0x0 libbb/lib.a(remove_file.o)
 .note.GNU-stack
                0x00000000        0x0 libbb/lib.a(remove_file.o)
 .text          0x00000000        0x0 libbb/lib.a(run_shell.o)
 .data          0x00000000        0x0 libbb/lib.a(run_shell.o)
 .bss           0x00000000        0x0 libbb/lib.a(run_shell.o)
 .note.GNU-stack
                0x00000000        0x0 libbb/lib.a(run_shell.o)
 .text          0x00000000        0x0 libbb/lib.a(safe_poll.o)
 .data          0x00000000        0x0 libbb/lib.a(safe_poll.o)
 .bss           0x00000000        0x0 libbb/lib.a(safe_poll.o)
 .note.GNU-stack
                0x00000000        0x0 libbb/lib.a(safe_poll.o)
 .text          0x00000000        0x0 libbb/lib.a(safe_strncpy.o)
 .data          0x00000000        0x0 libbb/lib.a(safe_strncpy.o)
 .bss           0x00000000        0x0 libbb/lib.a(safe_strncpy.o)
 .text.safe_strtoul
                0x00000000       0x68 libbb/lib.a(safe_strncpy.o)
 .note.GNU-stack
                0x00000000        0x0 libbb/lib.a(safe_strncpy.o)
 .text          0x00000000        0x0 libbb/lib.a(setup_environment.o)
 .data          0x00000000        0x0 libbb/lib.a(setup_environment.o)
 .bss           0x00000000        0x0 libbb/lib.a(setup_environment.o)
 .note.GNU-stack
                0x00000000        0x0 libbb/lib.a(setup_environment.o)
 .text          0x00000000        0x0 libbb/lib.a(simplify_path.o)
 .data          0x00000000        0x0 libbb/lib.a(simplify_path.o)
 .bss           0x00000000        0x0 libbb/lib.a(simplify_path.o)
 .note.GNU-stack
                0x00000000        0x0 libbb/lib.a(simplify_path.o)
 .text          0x00000000        0x0 libbb/lib.a(skip_whitespace.o)
 .data          0x00000000        0x0 libbb/lib.a(skip_whitespace.o)
 .bss           0x00000000        0x0 libbb/lib.a(skip_whitespace.o)
 .note.GNU-stack
                0x00000000        0x0 libbb/lib.a(skip_whitespace.o)
 .text          0x00000000        0x0 libbb/lib.a(str_tolower.o)
 .data          0x00000000        0x0 libbb/lib.a(str_tolower.o)
 .bss           0x00000000        0x0 libbb/lib.a(str_tolower.o)
 .note.GNU-stack
                0x00000000        0x0 libbb/lib.a(str_tolower.o)
 .text          0x00000000        0x0 libbb/lib.a(time.o)
 .data          0x00000000        0x0 libbb/lib.a(time.o)
 .bss           0x00000000        0x0 libbb/lib.a(time.o)
 .note.GNU-stack
                0x00000000        0x0 libbb/lib.a(time.o)
 .text          0x00000000        0x0 libbb/lib.a(trim.o)
 .data          0x00000000        0x0 libbb/lib.a(trim.o)
 .bss           0x00000000        0x0 libbb/lib.a(trim.o)
 .note.GNU-stack
                0x00000000        0x0 libbb/lib.a(trim.o)
 .text          0x00000000        0x0 libbb/lib.a(u_signal_names.o)
 .data          0x00000000        0x0 libbb/lib.a(u_signal_names.o)
 .bss           0x00000000        0x0 libbb/lib.a(u_signal_names.o)
 .note.GNU-stack
                0x00000000        0x0 libbb/lib.a(u_signal_names.o)
 .text          0x00000000        0x0 libbb/lib.a(vfork_daemon_rexec.o)
 .data          0x00000000        0x0 libbb/lib.a(vfork_daemon_rexec.o)
 .bss           0x00000000        0x0 libbb/lib.a(vfork_daemon_rexec.o)
 .text.save_nofork_data
                0x00000000       0x68 libbb/lib.a(vfork_daemon_rexec.o)
 .text.restore_nofork_data
                0x00000000       0x64 libbb/lib.a(vfork_daemon_rexec.o)
 .text.forkexit_or_rexec
                0x00000000       0x28 libbb/lib.a(vfork_daemon_rexec.o)
 .text.run_nofork_applet_prime
                0x00000000      0x11c libbb/lib.a(vfork_daemon_rexec.o)
 .text.run_nofork_applet
                0x00000000       0x38 libbb/lib.a(vfork_daemon_rexec.o)
 .text.wait_pid
                0x00000000       0x44 libbb/lib.a(vfork_daemon_rexec.o)
 .text.wait_nohang
                0x00000000       0x1c libbb/lib.a(vfork_daemon_rexec.o)
 .text.spawn_and_wait
                0x00000000       0x7c libbb/lib.a(vfork_daemon_rexec.o)
 .text.xspawn   0x00000000       0x20 libbb/lib.a(vfork_daemon_rexec.o)
 .note.GNU-stack
                0x00000000        0x0 libbb/lib.a(vfork_daemon_rexec.o)
 .text          0x00000000        0x0 libbb/lib.a(wfopen.o)
 .data          0x00000000        0x0 libbb/lib.a(wfopen.o)
 .bss           0x00000000        0x0 libbb/lib.a(wfopen.o)
 .note.GNU-stack
                0x00000000        0x0 libbb/lib.a(wfopen.o)
 .text          0x00000000        0x0 libbb/lib.a(xatonum.o)
 .data          0x00000000        0x0 libbb/lib.a(xatonum.o)
 .bss           0x00000000        0x0 libbb/lib.a(xatonum.o)
 .text.xatol    0x00000000       0x24 libbb/lib.a(xatonum.o)
 .text.xatol_sfx
                0x00000000       0x20 libbb/lib.a(xatonum.o)
 .text.xatol_range_sfx
                0x00000000       0x24 libbb/lib.a(xatonum.o)
 .text.xatoul_range_sfx
                0x00000000       0x24 libbb/lib.a(xatonum.o)
 .text.xstrtoul
                0x00000000       0x20 libbb/lib.a(xatonum.o)
 .text.xstrtoul_sfx
                0x00000000       0x1c libbb/lib.a(xatonum.o)
 .text.xstrtoul_range
                0x00000000       0x18 libbb/lib.a(xatonum.o)
 .text.xstrtoull_range_sfx
                0x00000000      0x198 libbb/lib.a(xatonum.o)
 .text.xstrtoll_range_sfx
                0x00000000       0xf8 libbb/lib.a(xatonum.o)
 .text.xatoll   0x00000000       0x34 libbb/lib.a(xatonum.o)
 .text.xatoll_sfx
                0x00000000       0x30 libbb/lib.a(xatonum.o)
 .text.xatoll_range
                0x00000000       0x2c libbb/lib.a(xatonum.o)
 .text.xatoll_range_sfx
                0x00000000        0x8 libbb/lib.a(xatonum.o)
 .text.xstrtoll_range
                0x00000000       0x28 libbb/lib.a(xatonum.o)
 .text.xatoull_sfx
                0x00000000       0x30 libbb/lib.a(xatonum.o)
 .text.xatoull  0x00000000        0x8 libbb/lib.a(xatonum.o)
 .text.xatoull_range
                0x00000000       0x2c libbb/lib.a(xatonum.o)
 .text.xatoull_range_sfx
                0x00000000        0x8 libbb/lib.a(xatonum.o)
 .text.xstrtoull
                0x00000000       0x30 libbb/lib.a(xatonum.o)
 .text.xstrtoull_sfx
                0x00000000       0x2c libbb/lib.a(xatonum.o)
 .text.xstrtoull_range
                0x00000000       0x28 libbb/lib.a(xatonum.o)
 .note.GNU-stack
                0x00000000        0x0 libbb/lib.a(xatonum.o)
 .text          0x00000000        0x0 libbb/lib.a(xconnect.o)
 .data          0x00000000        0x0 libbb/lib.a(xconnect.o)
 .bss           0x00000000        0x0 libbb/lib.a(xconnect.o)
 .text.get_nport
                0x00000000       0x20 libbb/lib.a(xconnect.o)
 .text.xmalloc_sockaddr2hostonly_noport
                0x00000000        0x8 libbb/lib.a(xconnect.o)
 .text.xmalloc_sockaddr2host
                0x00000000        0x8 libbb/lib.a(xconnect.o)
 .text.xsocket_stream
                0x00000000        0xc libbb/lib.a(xconnect.o)
 .text.host2sockaddr
                0x00000000        0xc libbb/lib.a(xconnect.o)
 .text.xhost_and_af2sockaddr
                0x00000000        0x8 libbb/lib.a(xconnect.o)
 .text.bb_lookup_host
                0x00000000       0x48 libbb/lib.a(xconnect.o)
 .text.xconnect_tcp_v4
                0x00000000       0x34 libbb/lib.a(xconnect.o)
 .text.create_and_connect_stream_or_die
                0x00000000       0x4c libbb/lib.a(xconnect.o)
 .text.create_and_bind_dgram_or_die
                0x00000000        0x8 libbb/lib.a(xconnect.o)
 .note.GNU-stack
                0x00000000        0x0 libbb/lib.a(xconnect.o)
 .text          0x00000000        0x0 libbb/lib.a(xgetcwd.o)
 .data          0x00000000        0x0 libbb/lib.a(xgetcwd.o)
 .bss           0x00000000        0x0 libbb/lib.a(xgetcwd.o)
 .note.GNU-stack
                0x00000000        0x0 libbb/lib.a(xgetcwd.o)
 .text          0x00000000        0x0 libbb/lib.a(xgethostbyname.o)
 .data          0x00000000        0x0 libbb/lib.a(xgethostbyname.o)
 .bss           0x00000000        0x0 libbb/lib.a(xgethostbyname.o)
 .text.xgethostbyname
                0x00000000       0x28 libbb/lib.a(xgethostbyname.o)
 .rodata.str1.1
                0x00000000        0x3 libbb/lib.a(xgethostbyname.o)
 .note.GNU-stack
                0x00000000        0x0 libbb/lib.a(xgethostbyname.o)
 .text          0x00000000        0x0 libbb/lib.a(xregcomp.o)
 .data          0x00000000        0x0 libbb/lib.a(xregcomp.o)
 .bss           0x00000000        0x0 libbb/lib.a(xregcomp.o)
 .note.GNU-stack
                0x00000000        0x0 libbb/lib.a(xregcomp.o)
 .text          0x00000000        0x0 libbb/lib.a(bb_askpass.o)
 .data          0x00000000        0x0 libbb/lib.a(bb_askpass.o)
 .bss           0x00000000        0x0 libbb/lib.a(bb_askpass.o)
 .note.GNU-stack
                0x00000000        0x0 libbb/lib.a(bb_askpass.o)
 .text          0x00000000        0x0 libbb/lib.a(concat_subpath_file.o)
 .data          0x00000000        0x0 libbb/lib.a(concat_subpath_file.o)
 .bss           0x00000000        0x0 libbb/lib.a(concat_subpath_file.o)
 .note.GNU-stack
                0x00000000        0x0 libbb/lib.a(concat_subpath_file.o)
 .text          0x00000000        0x0 libpwdgrp/lib.a(uidgid_get.o)
 .data          0x00000000        0x0 libpwdgrp/lib.a(uidgid_get.o)
 .bss           0x00000000        0x0 libpwdgrp/lib.a(uidgid_get.o)
 .note.GNU-stack
                0x00000000        0x0 libpwdgrp/lib.a(uidgid_get.o)
 .data          0x00000000        0x0 /opt/toolchain_hisi_ipsec/arm-hsan-linux-uclibcgnueabi/bin/../lib/gcc/arm-hsan-linux-uclibcgnueabi/4.4.6/libgcc.a(_udivsi3.o)
 .bss           0x00000000        0x0 /opt/toolchain_hisi_ipsec/arm-hsan-linux-uclibcgnueabi/bin/../lib/gcc/arm-hsan-linux-uclibcgnueabi/4.4.6/libgcc.a(_udivsi3.o)
 .note.GNU-stack
                0x00000000        0x0 /opt/toolchain_hisi_ipsec/arm-hsan-linux-uclibcgnueabi/bin/../lib/gcc/arm-hsan-linux-uclibcgnueabi/4.4.6/libgcc.a(_udivsi3.o)
 .data          0x00000000        0x0 /opt/toolchain_hisi_ipsec/arm-hsan-linux-uclibcgnueabi/bin/../lib/gcc/arm-hsan-linux-uclibcgnueabi/4.4.6/libgcc.a(_divsi3.o)
 .bss           0x00000000        0x0 /opt/toolchain_hisi_ipsec/arm-hsan-linux-uclibcgnueabi/bin/../lib/gcc/arm-hsan-linux-uclibcgnueabi/4.4.6/libgcc.a(_divsi3.o)
 .note.GNU-stack
                0x00000000        0x0 /opt/toolchain_hisi_ipsec/arm-hsan-linux-uclibcgnueabi/bin/../lib/gcc/arm-hsan-linux-uclibcgnueabi/4.4.6/libgcc.a(_divsi3.o)
 .data          0x00000000        0x0 /opt/toolchain_hisi_ipsec/arm-hsan-linux-uclibcgnueabi/bin/../lib/gcc/arm-hsan-linux-uclibcgnueabi/4.4.6/libgcc.a(_lshrdi3.o)
 .bss           0x00000000        0x0 /opt/toolchain_hisi_ipsec/arm-hsan-linux-uclibcgnueabi/bin/../lib/gcc/arm-hsan-linux-uclibcgnueabi/4.4.6/libgcc.a(_lshrdi3.o)
 .note.GNU-stack
                0x00000000        0x0 /opt/toolchain_hisi_ipsec/arm-hsan-linux-uclibcgnueabi/bin/../lib/gcc/arm-hsan-linux-uclibcgnueabi/4.4.6/libgcc.a(_lshrdi3.o)
 .data          0x00000000        0x0 /opt/toolchain_hisi_ipsec/arm-hsan-linux-uclibcgnueabi/bin/../lib/gcc/arm-hsan-linux-uclibcgnueabi/4.4.6/libgcc.a(_ashldi3.o)
 .bss           0x00000000        0x0 /opt/toolchain_hisi_ipsec/arm-hsan-linux-uclibcgnueabi/bin/../lib/gcc/arm-hsan-linux-uclibcgnueabi/4.4.6/libgcc.a(_ashldi3.o)
 .note.GNU-stack
                0x00000000        0x0 /opt/toolchain_hisi_ipsec/arm-hsan-linux-uclibcgnueabi/bin/../lib/gcc/arm-hsan-linux-uclibcgnueabi/4.4.6/libgcc.a(_ashldi3.o)
 .data          0x00000000        0x0 /opt/toolchain_hisi_ipsec/arm-hsan-linux-uclibcgnueabi/bin/../lib/gcc/arm-hsan-linux-uclibcgnueabi/4.4.6/libgcc.a(_arm_addsubdf3.o)
 .bss           0x00000000        0x0 /opt/toolchain_hisi_ipsec/arm-hsan-linux-uclibcgnueabi/bin/../lib/gcc/arm-hsan-linux-uclibcgnueabi/4.4.6/libgcc.a(_arm_addsubdf3.o)
 .note.GNU-stack
                0x00000000        0x0 /opt/toolchain_hisi_ipsec/arm-hsan-linux-uclibcgnueabi/bin/../lib/gcc/arm-hsan-linux-uclibcgnueabi/4.4.6/libgcc.a(_arm_addsubdf3.o)
 .data          0x00000000        0x0 /opt/toolchain_hisi_ipsec/arm-hsan-linux-uclibcgnueabi/bin/../lib/gcc/arm-hsan-linux-uclibcgnueabi/4.4.6/libgcc.a(_arm_muldivdf3.o)
 .bss           0x00000000        0x0 /opt/toolchain_hisi_ipsec/arm-hsan-linux-uclibcgnueabi/bin/../lib/gcc/arm-hsan-linux-uclibcgnueabi/4.4.6/libgcc.a(_arm_muldivdf3.o)
 .note.GNU-stack
                0x00000000        0x0 /opt/toolchain_hisi_ipsec/arm-hsan-linux-uclibcgnueabi/bin/../lib/gcc/arm-hsan-linux-uclibcgnueabi/4.4.6/libgcc.a(_arm_muldivdf3.o)
 .data          0x00000000        0x0 /opt/toolchain_hisi_ipsec/arm-hsan-linux-uclibcgnueabi/bin/../lib/gcc/arm-hsan-linux-uclibcgnueabi/4.4.6/libgcc.a(_arm_cmpdf2.o)
 .bss           0x00000000        0x0 /opt/toolchain_hisi_ipsec/arm-hsan-linux-uclibcgnueabi/bin/../lib/gcc/arm-hsan-linux-uclibcgnueabi/4.4.6/libgcc.a(_arm_cmpdf2.o)
 .note.GNU-stack
                0x00000000        0x0 /opt/toolchain_hisi_ipsec/arm-hsan-linux-uclibcgnueabi/bin/../lib/gcc/arm-hsan-linux-uclibcgnueabi/4.4.6/libgcc.a(_arm_cmpdf2.o)
 .data          0x00000000        0x0 /opt/toolchain_hisi_ipsec/arm-hsan-linux-uclibcgnueabi/bin/../lib/gcc/arm-hsan-linux-uclibcgnueabi/4.4.6/libgcc.a(_arm_fixdfsi.o)
 .bss           0x00000000        0x0 /opt/toolchain_hisi_ipsec/arm-hsan-linux-uclibcgnueabi/bin/../lib/gcc/arm-hsan-linux-uclibcgnueabi/4.4.6/libgcc.a(_arm_fixdfsi.o)
 .note.GNU-stack
                0x00000000        0x0 /opt/toolchain_hisi_ipsec/arm-hsan-linux-uclibcgnueabi/bin/../lib/gcc/arm-hsan-linux-uclibcgnueabi/4.4.6/libgcc.a(_arm_fixdfsi.o)
 .data          0x00000000        0x0 /opt/toolchain_hisi_ipsec/arm-hsan-linux-uclibcgnueabi/bin/../lib/gcc/arm-hsan-linux-uclibcgnueabi/4.4.6/libgcc.a(_arm_fixunsdfsi.o)
 .bss           0x00000000        0x0 /opt/toolchain_hisi_ipsec/arm-hsan-linux-uclibcgnueabi/bin/../lib/gcc/arm-hsan-linux-uclibcgnueabi/4.4.6/libgcc.a(_arm_fixunsdfsi.o)
 .note.GNU-stack
                0x00000000        0x0 /opt/toolchain_hisi_ipsec/arm-hsan-linux-uclibcgnueabi/bin/../lib/gcc/arm-hsan-linux-uclibcgnueabi/4.4.6/libgcc.a(_arm_fixunsdfsi.o)
 .data          0x00000000        0x0 /opt/toolchain_hisi_ipsec/arm-hsan-linux-uclibcgnueabi/bin/../lib/gcc/arm-hsan-linux-uclibcgnueabi/4.4.6/libgcc.a(_aeabi_ldivmod.o)
 .bss           0x00000000        0x0 /opt/toolchain_hisi_ipsec/arm-hsan-linux-uclibcgnueabi/bin/../lib/gcc/arm-hsan-linux-uclibcgnueabi/4.4.6/libgcc.a(_aeabi_ldivmod.o)
 .note.GNU-stack
                0x00000000        0x0 /opt/toolchain_hisi_ipsec/arm-hsan-linux-uclibcgnueabi/bin/../lib/gcc/arm-hsan-linux-uclibcgnueabi/4.4.6/libgcc.a(_aeabi_ldivmod.o)
 .data          0x00000000        0x0 /opt/toolchain_hisi_ipsec/arm-hsan-linux-uclibcgnueabi/bin/../lib/gcc/arm-hsan-linux-uclibcgnueabi/4.4.6/libgcc.a(_aeabi_uldivmod.o)
 .bss           0x00000000        0x0 /opt/toolchain_hisi_ipsec/arm-hsan-linux-uclibcgnueabi/bin/../lib/gcc/arm-hsan-linux-uclibcgnueabi/4.4.6/libgcc.a(_aeabi_uldivmod.o)
 .note.GNU-stack
                0x00000000        0x0 /opt/toolchain_hisi_ipsec/arm-hsan-linux-uclibcgnueabi/bin/../lib/gcc/arm-hsan-linux-uclibcgnueabi/4.4.6/libgcc.a(_aeabi_uldivmod.o)
 .data          0x00000000        0x0 /opt/toolchain_hisi_ipsec/arm-hsan-linux-uclibcgnueabi/bin/../lib/gcc/arm-hsan-linux-uclibcgnueabi/4.4.6/libgcc.a(_dvmd_lnx.o)
 .bss           0x00000000        0x0 /opt/toolchain_hisi_ipsec/arm-hsan-linux-uclibcgnueabi/bin/../lib/gcc/arm-hsan-linux-uclibcgnueabi/4.4.6/libgcc.a(_dvmd_lnx.o)
 .note.GNU-stack
                0x00000000        0x0 /opt/toolchain_hisi_ipsec/arm-hsan-linux-uclibcgnueabi/bin/../lib/gcc/arm-hsan-linux-uclibcgnueabi/4.4.6/libgcc.a(_dvmd_lnx.o)
 .data          0x00000000        0x0 /opt/toolchain_hisi_ipsec/arm-hsan-linux-uclibcgnueabi/bin/../lib/gcc/arm-hsan-linux-uclibcgnueabi/4.4.6/libgcc.a(bpabi.o)
 .bss           0x00000000        0x0 /opt/toolchain_hisi_ipsec/arm-hsan-linux-uclibcgnueabi/bin/../lib/gcc/arm-hsan-linux-uclibcgnueabi/4.4.6/libgcc.a(bpabi.o)
 .ARM.extab     0x00000000        0x0 /opt/toolchain_hisi_ipsec/arm-hsan-linux-uclibcgnueabi/bin/../lib/gcc/arm-hsan-linux-uclibcgnueabi/4.4.6/libgcc.a(bpabi.o)
 .note.GNU-stack
                0x00000000        0x0 /opt/toolchain_hisi_ipsec/arm-hsan-linux-uclibcgnueabi/bin/../lib/gcc/arm-hsan-linux-uclibcgnueabi/4.4.6/libgcc.a(bpabi.o)
 .data          0x00000000        0x0 /opt/toolchain_hisi_ipsec/arm-hsan-linux-uclibcgnueabi/bin/../lib/gcc/arm-hsan-linux-uclibcgnueabi/4.4.6/libgcc.a(_divdi3.o)
 .bss           0x00000000        0x0 /opt/toolchain_hisi_ipsec/arm-hsan-linux-uclibcgnueabi/bin/../lib/gcc/arm-hsan-linux-uclibcgnueabi/4.4.6/libgcc.a(_divdi3.o)
 .ARM.extab     0x00000000        0x0 /opt/toolchain_hisi_ipsec/arm-hsan-linux-uclibcgnueabi/bin/../lib/gcc/arm-hsan-linux-uclibcgnueabi/4.4.6/libgcc.a(_divdi3.o)
 .note.GNU-stack
                0x00000000        0x0 /opt/toolchain_hisi_ipsec/arm-hsan-linux-uclibcgnueabi/bin/../lib/gcc/arm-hsan-linux-uclibcgnueabi/4.4.6/libgcc.a(_divdi3.o)
 .data          0x00000000        0x0 /opt/toolchain_hisi_ipsec/arm-hsan-linux-uclibcgnueabi/bin/../lib/gcc/arm-hsan-linux-uclibcgnueabi/4.4.6/libgcc.a(_udivdi3.o)
 .bss           0x00000000        0x0 /opt/toolchain_hisi_ipsec/arm-hsan-linux-uclibcgnueabi/bin/../lib/gcc/arm-hsan-linux-uclibcgnueabi/4.4.6/libgcc.a(_udivdi3.o)
 .ARM.extab     0x00000000        0x0 /opt/toolchain_hisi_ipsec/arm-hsan-linux-uclibcgnueabi/bin/../lib/gcc/arm-hsan-linux-uclibcgnueabi/4.4.6/libgcc.a(_udivdi3.o)
 .note.GNU-stack
                0x00000000        0x0 /opt/toolchain_hisi_ipsec/arm-hsan-linux-uclibcgnueabi/bin/../lib/gcc/arm-hsan-linux-uclibcgnueabi/4.4.6/libgcc.a(_udivdi3.o)
 .data          0x00000000        0x0 /opt/toolchain_hisi_ipsec/arm-hsan-linux-uclibcgnueabi/bin/../lib/gcc/arm-hsan-linux-uclibcgnueabi/4.4.6/libgcc.a(_clzsi2.o)
 .bss           0x00000000        0x0 /opt/toolchain_hisi_ipsec/arm-hsan-linux-uclibcgnueabi/bin/../lib/gcc/arm-hsan-linux-uclibcgnueabi/4.4.6/libgcc.a(_clzsi2.o)
 .note.GNU-stack
                0x00000000        0x0 /opt/toolchain_hisi_ipsec/arm-hsan-linux-uclibcgnueabi/bin/../lib/gcc/arm-hsan-linux-uclibcgnueabi/4.4.6/libgcc.a(_clzsi2.o)
 .data          0x00000000        0x0 /home/luokunling/open-HG633/BR-R5-HG633HG658v2-20140408/output/host/usr/arm-unknown-linux-uclibcgnueabi/sysroot/usr/lib/uclibc_nonshared.a(atexit.os)
 .bss           0x00000000        0x0 /home/luokunling/open-HG633/BR-R5-HG633HG658v2-20140408/output/host/usr/arm-unknown-linux-uclibcgnueabi/sysroot/usr/lib/uclibc_nonshared.a(atexit.os)
 .note.GNU-stack
                0x00000000        0x0 /home/luokunling/open-HG633/BR-R5-HG633HG658v2-20140408/output/host/usr/arm-unknown-linux-uclibcgnueabi/sysroot/usr/lib/uclibc_nonshared.a(atexit.os)
 .text          0x00000000        0x0 /opt/toolchain_hisi_ipsec/arm-hsan-linux-uclibcgnueabi/bin/../lib/gcc/arm-hsan-linux-uclibcgnueabi/4.4.6/crtend.o
 .data          0x00000000        0x0 /opt/toolchain_hisi_ipsec/arm-hsan-linux-uclibcgnueabi/bin/../lib/gcc/arm-hsan-linux-uclibcgnueabi/4.4.6/crtend.o
 .bss           0x00000000        0x0 /opt/toolchain_hisi_ipsec/arm-hsan-linux-uclibcgnueabi/bin/../lib/gcc/arm-hsan-linux-uclibcgnueabi/4.4.6/crtend.o
 .note.GNU-stack
                0x00000000        0x0 /opt/toolchain_hisi_ipsec/arm-hsan-linux-uclibcgnueabi/bin/../lib/gcc/arm-hsan-linux-uclibcgnueabi/4.4.6/crtend.o
 .text          0x00000000        0x0 /home/luokunling/open-HG633/BR-R5-HG633HG658v2-20140408/output/host/usr/arm-unknown-linux-uclibcgnueabi/sysroot/usr/lib/crtn.o
 .data          0x00000000        0x0 /home/luokunling/open-HG633/BR-R5-HG633HG658v2-20140408/output/host/usr/arm-unknown-linux-uclibcgnueabi/sysroot/usr/lib/crtn.o
 .bss           0x00000000        0x0 /home/luokunling/open-HG633/BR-R5-HG633HG658v2-20140408/output/host/usr/arm-unknown-linux-uclibcgnueabi/sysroot/usr/lib/crtn.o
 .note.GNU-stack
                0x00000000        0x0 /home/luokunling/open-HG633/BR-R5-HG633HG658v2-20140408/output/host/usr/arm-unknown-linux-uclibcgnueabi/sysroot/usr/lib/crtn.o

Memory Configuration

Name             Origin             Length             Attributes
*default*        0x00000000         0xffffffff

Linker script and memory map

LOAD /home/luokunling/open-HG633/BR-R5-HG633HG658v2-20140408/output/host/usr/arm-unknown-linux-uclibcgnueabi/sysroot/usr/lib/crt1.o
LOAD /home/luokunling/open-HG633/BR-R5-HG633HG658v2-20140408/output/host/usr/arm-unknown-linux-uclibcgnueabi/sysroot/usr/lib/crti.o
LOAD /opt/toolchain_hisi_ipsec/arm-hsan-linux-uclibcgnueabi/bin/../lib/gcc/arm-hsan-linux-uclibcgnueabi/4.4.6/crtbegin.o
START GROUP
LOAD applets/built-in.o
LOAD archival/lib.a
LOAD archival/libunarchive/lib.a
LOAD console-tools/lib.a
LOAD coreutils/lib.a
LOAD coreutils/libcoreutils/lib.a
LOAD debianutils/lib.a
LOAD e2fsprogs/lib.a
LOAD editors/lib.a
LOAD findutils/lib.a
LOAD init/lib.a
LOAD ipsvd/lib.a
LOAD libbb/lib.a
LOAD libpwdgrp/lib.a
LOAD loginutils/lib.a
LOAD miscutils/lib.a
LOAD modutils/lib.a
LOAD networking/lib.a
LOAD networking/libiproute/lib.a
LOAD networking/udhcp/lib.a
LOAD procps/lib.a
LOAD runit/lib.a
LOAD selinux/lib.a
LOAD shell/lib.a
LOAD sysklogd/lib.a
LOAD util-linux/lib.a
LOAD atpconfig/lib.a
LOAD archival/built-in.o
LOAD archival/libunarchive/built-in.o
LOAD console-tools/built-in.o
LOAD coreutils/built-in.o
LOAD coreutils/libcoreutils/built-in.o
LOAD debianutils/built-in.o
LOAD e2fsprogs/built-in.o
LOAD editors/built-in.o
LOAD findutils/built-in.o
LOAD init/built-in.o
LOAD ipsvd/built-in.o
LOAD libbb/built-in.o
LOAD libpwdgrp/built-in.o
LOAD loginutils/built-in.o
LOAD miscutils/built-in.o
LOAD modutils/built-in.o
LOAD networking/built-in.o
LOAD networking/libiproute/built-in.o
LOAD networking/udhcp/built-in.o
LOAD procps/built-in.o
LOAD runit/built-in.o
LOAD selinux/built-in.o
LOAD shell/built-in.o
LOAD sysklogd/built-in.o
LOAD util-linux/built-in.o
LOAD atpconfig/built-in.o
END GROUP
START GROUP
LOAD /home/luokunling/open-HG633/BR-R5-HG633HG658v2-20140408/output/host/usr/arm-unknown-linux-uclibcgnueabi/sysroot/usr/lib/libcrypt.so
LOAD /home/luokunling/open-HG633/BR-R5-HG633HG658v2-20140408/output/host/usr/arm-unknown-linux-uclibcgnueabi/sysroot/lib//libgplutil.so
LOAD /home/luokunling/open-HG633/BR-R5-HG633HG658v2-20140408/output/host/usr/arm-unknown-linux-uclibcgnueabi/sysroot/lib//libssl.so
END GROUP
LOAD /opt/toolchain_hisi_ipsec/arm-hsan-linux-uclibcgnueabi/bin/../lib/gcc/arm-hsan-linux-uclibcgnueabi/4.4.6/libgcc.a
LOAD /home/luokunling/open-HG633/BR-R5-HG633HG658v2-20140408/output/host/usr/arm-unknown-linux-uclibcgnueabi/sysroot/lib//libgcc_s.so
START GROUP
LOAD /home/luokunling/open-HG633/BR-R5-HG633HG658v2-20140408/output/host/usr/arm-unknown-linux-uclibcgnueabi/sysroot/lib//libgcc_s.so.1
LOAD /opt/toolchain_hisi_ipsec/arm-hsan-linux-uclibcgnueabi/bin/../lib/gcc/arm-hsan-linux-uclibcgnueabi/4.4.6/libgcc.a
END GROUP
LOAD /home/luokunling/open-HG633/BR-R5-HG633HG658v2-20140408/output/host/usr/arm-unknown-linux-uclibcgnueabi/sysroot/usr/lib/libc.so
START GROUP
LOAD /home/luokunling/open-HG633/BR-R5-HG633HG658v2-20140408/output/host/usr/arm-unknown-linux-uclibcgnueabi/sysroot/usr/lib/uclibc_nonshared.a
LOAD /home/luokunling/open-HG633/BR-R5-HG633HG658v2-20140408/output/host/usr/arm-unknown-linux-uclibcgnueabi/sysroot/lib//libc.so.0
LOAD /home/luokunling/open-HG633/BR-R5-HG633HG658v2-20140408/output/host/usr/arm-unknown-linux-uclibcgnueabi/sysroot/lib//ld-uClibc.so.0
END GROUP
LOAD /opt/toolchain_hisi_ipsec/arm-hsan-linux-uclibcgnueabi/bin/../lib/gcc/arm-hsan-linux-uclibcgnueabi/4.4.6/libgcc.a
LOAD /home/luokunling/open-HG633/BR-R5-HG633HG658v2-20140408/output/host/usr/arm-unknown-linux-uclibcgnueabi/sysroot/lib//libgcc_s.so
START GROUP
LOAD /home/luokunling/open-HG633/BR-R5-HG633HG658v2-20140408/output/host/usr/arm-unknown-linux-uclibcgnueabi/sysroot/lib//libgcc_s.so.1
LOAD /opt/toolchain_hisi_ipsec/arm-hsan-linux-uclibcgnueabi/bin/../lib/gcc/arm-hsan-linux-uclibcgnueabi/4.4.6/libgcc.a
END GROUP
LOAD /opt/toolchain_hisi_ipsec/arm-hsan-linux-uclibcgnueabi/bin/../lib/gcc/arm-hsan-linux-uclibcgnueabi/4.4.6/crtend.o
LOAD /home/luokunling/open-HG633/BR-R5-HG633HG658v2-20140408/output/host/usr/arm-unknown-linux-uclibcgnueabi/sysroot/usr/lib/crtn.o
                0x00008000                PROVIDE (__executable_start, 0x8000)
                0x00008114                . = (0x8000 + SIZEOF_HEADERS)

.interp         0x00008114       0x14
 *(SORT(.interp))
 .interp        0x00008114       0x14 /home/luokunling/open-HG633/BR-R5-HG633HG658v2-20140408/output/host/usr/arm-unknown-linux-uclibcgnueabi/sysroot/usr/lib/libcrypt.so

.note.gnu.build-id
 *(SORT(.note.gnu.build-id))

.hash           0x00008128      0x8c0
 *(SORT(.hash))
 .hash          0x00008128      0x8c0 /home/luokunling/open-HG633/BR-R5-HG633HG658v2-20140408/output/host/usr/arm-unknown-linux-uclibcgnueabi/sysroot/usr/lib/libcrypt.so

.gnu.hash
 *(SORT(.gnu.hash))

.dynsym         0x000089e8     0x1270
 *(SORT(.dynsym))
 .dynsym        0x000089e8     0x1270 /home/luokunling/open-HG633/BR-R5-HG633HG658v2-20140408/output/host/usr/arm-unknown-linux-uclibcgnueabi/sysroot/usr/lib/libcrypt.so

.dynstr         0x00009c58      0x9c6
 *(SORT(.dynstr))
 .dynstr        0x00009c58      0x9c6 /home/luokunling/open-HG633/BR-R5-HG633HG658v2-20140408/output/host/usr/arm-unknown-linux-uclibcgnueabi/sysroot/usr/lib/libcrypt.so

.gnu.version    0x0000a61e      0x24e
 *(SORT(.gnu.version))
 .gnu.version   0x0000a61e      0x24e /home/luokunling/open-HG633/BR-R5-HG633HG658v2-20140408/output/host/usr/arm-unknown-linux-uclibcgnueabi/sysroot/usr/lib/libcrypt.so

.gnu.version_d  0x0000a86c        0x0
 *(SORT(.gnu.version_d))
 .gnu.version_d
                0x00000000        0x0 /home/luokunling/open-HG633/BR-R5-HG633HG658v2-20140408/output/host/usr/arm-unknown-linux-uclibcgnueabi/sysroot/usr/lib/libcrypt.so

.gnu.version_r  0x0000a86c       0x20
 *(SORT(.gnu.version_r))
 .gnu.version_r
                0x0000a86c       0x20 /home/luokunling/open-HG633/BR-R5-HG633HG658v2-20140408/output/host/usr/arm-unknown-linux-uclibcgnueabi/sysroot/usr/lib/libcrypt.so

.rel.dyn        0x0000a88c       0x58
 *(SORT(.rel.init))
 *(SORT(.rel.text) SORT(.rel.text.*) SORT(.rel.gnu.linkonce.t.*))
 *(SORT(.rel.fini))
 *(SORT(.rel.rodata) SORT(.rel.rodata.*) SORT(.rel.gnu.linkonce.r.*))
 *(SORT(.rel.data.rel.ro*) SORT(.rel.gnu.linkonce.d.rel.ro.*))
 *(SORT(.rel.data) SORT(.rel.data.*) SORT(.rel.gnu.linkonce.d.*))
 *(SORT(.rel.tdata) SORT(.rel.tdata.*) SORT(.rel.gnu.linkonce.td.*))
 *(SORT(.rel.tbss) SORT(.rel.tbss.*) SORT(.rel.gnu.linkonce.tb.*))
 *(SORT(.rel.ctors))
 *(SORT(.rel.dtors))
 *(SORT(.rel.got))
 .rel.got       0x00000000        0x0 /home/luokunling/open-HG633/BR-R5-HG633HG658v2-20140408/output/host/usr/arm-unknown-linux-uclibcgnueabi/sysroot/usr/lib/libcrypt.so
 *(SORT(.rel.bss) SORT(.rel.bss.*) SORT(.rel.gnu.linkonce.b.*))
 .rel.bss       0x0000a88c       0x58 /home/luokunling/open-HG633/BR-R5-HG633HG658v2-20140408/output/host/usr/arm-unknown-linux-uclibcgnueabi/sysroot/usr/lib/libcrypt.so
                0x0000a8e4                PROVIDE (__rel_iplt_start, .)
 *(SORT(.rel.iplt))
                0x0000a8e4                PROVIDE (__rel_iplt_end, .)
                0x0000a8e4                PROVIDE (__rela_iplt_start, .)
                0x0000a8e4                PROVIDE (__rela_iplt_end, .)

.rela.dyn       0x0000a8e4        0x0
 *(SORT(.rela.init))
 *(SORT(.rela.text) SORT(.rela.text.*) SORT(.rela.gnu.linkonce.t.*))
 *(SORT(.rela.fini))
 *(SORT(.rela.rodata) SORT(.rela.rodata.*) SORT(.rela.gnu.linkonce.r.*))
 *(SORT(.rela.data) SORT(.rela.data.*) SORT(.rela.gnu.linkonce.d.*))
 *(SORT(.rela.tdata) SORT(.rela.tdata.*) SORT(.rela.gnu.linkonce.td.*))
 *(SORT(.rela.tbss) SORT(.rela.tbss.*) SORT(.rela.gnu.linkonce.tb.*))
 *(SORT(.rela.ctors))
 *(SORT(.rela.dtors))
 *(SORT(.rela.got))
 *(SORT(.rela.bss) SORT(.rela.bss.*) SORT(.rela.gnu.linkonce.b.*))
                0x0000a8e4                PROVIDE (__rel_iplt_start, .)
                0x0000a8e4                PROVIDE (__rel_iplt_end, .)
                0x0000a8e4                PROVIDE (__rela_iplt_start, .)
 *(SORT(.rela.iplt))
                0x0000a8e4                PROVIDE (__rela_iplt_end, .)

.rel.plt        0x0000a8e4      0x858
 *(SORT(.rel.plt))
 .rel.plt       0x0000a8e4      0x858 /home/luokunling/open-HG633/BR-R5-HG633HG658v2-20140408/output/host/usr/arm-unknown-linux-uclibcgnueabi/sysroot/usr/lib/libcrypt.so

.rela.plt
 *(SORT(.rela.plt))

.init           0x0000b13c       0x10
 *(SORT(.init))
 .init          0x0000b13c        0xc /home/luokunling/open-HG633/BR-R5-HG633HG658v2-20140408/output/host/usr/arm-unknown-linux-uclibcgnueabi/sysroot/usr/lib/crti.o
                0x0000b13c                _init
 .init          0x0000b148        0x4 /home/luokunling/open-HG633/BR-R5-HG633HG658v2-20140408/output/host/usr/arm-unknown-linux-uclibcgnueabi/sysroot/usr/lib/crtn.o

.plt            0x0000b14c      0xc98
 *(SORT(.plt))
 .plt           0x0000b14c      0xc98 /home/luokunling/open-HG633/BR-R5-HG633HG658v2-20140408/output/host/usr/arm-unknown-linux-uclibcgnueabi/sysroot/usr/lib/libcrypt.so
                0x0000b160                dirname
                0x0000b16c                getpriority
                0x0000b178                ATP_MSG_SimpleBuilder
                0x0000b184                poll
                0x0000b190                _setjmp
                0x0000b19c                tolower
                0x0000b1a8                tcgetpgrp
                0x0000b1b4                vasprintf
                0x0000b1c0                rewind
                0x0000b1cc                bind
                0x0000b1d8                sysconf
                0x0000b1e4                gethostbyname
                0x0000b1f0                strftime
                0x0000b1fc                mknod
                0x0000b208                CyaSSL_library_init
                0x0000b214                __errno_location
                0x0000b220                inet_aton
                0x0000b22c                fcntl64
                0x0000b238                getenv
                0x0000b244                fwrite
                0x0000b250                regexec
                0x0000b25c                toupper
                0x0000b268                system
                0x0000b274                execle
                0x0000b280                crypt
                0x0000b28c                usleep
                0x0000b298                memcpy
                0x0000b2a4                umount2
                0x0000b2b0                connect
                0x0000b2bc                CyaSSLv3_client_method
                0x0000b2c8                sigfillset
                0x0000b2d4                getpgrp
                0x0000b2e0                sleep
                0x0000b2ec                realloc
                0x0000b2f8                CyaSSL_new
                0x0000b304                getprotobyname
                0x0000b310                syscall
                0x0000b31c                send
                0x0000b328                vfprintf
                0x0000b334                endmntent
                0x0000b340                getegid
                0x0000b34c                readlink
                0x0000b358                strspn
                0x0000b364                getsockname
                0x0000b370                gettimeofday
                0x0000b37c                strcat
                0x0000b388                fstat64
                0x0000b394                feof
                0x0000b3a0                wait4
                0x0000b3ac                realpath
                0x0000b3b8                lchown
                0x0000b3c4                execve
                0x0000b3d0                remove
                0x0000b3dc                chown
                0x0000b3e8                getspnam_r
                0x0000b3f4                rmdir
                0x0000b400                symlink
                0x0000b40c                openlog
                0x0000b418                putenv
                0x0000b424                getcwd
                0x0000b430                __cmsg_nxthdr
                0x0000b43c                getnameinfo
                0x0000b448                setenv
                0x0000b454                strcasecmp
                0x0000b460                freeaddrinfo
                0x0000b46c                strtoul
                0x0000b478                ATP_UTIL_GetSysTime
                0x0000b484                mkdir
                0x0000b490                malloc
                0x0000b49c                CyaSSL_CTX_set_verify
                0x0000b4a8                strrchr
                0x0000b4b4                strncmp
                0x0000b4c0                __uClibc_main
                0x0000b4cc                inet_pton
                0x0000b4d8                fopen64
                0x0000b4e4                getmntent_r
                0x0000b4f0                sched_setaffinity
                0x0000b4fc                setlinebuf
                0x0000b508                ioctl
                0x0000b514                freeifaddrs
                0x0000b520                recv
                0x0000b52c                strlen
                0x0000b538                ctime
                0x0000b544                opendir
                0x0000b550                setmntent
                0x0000b55c                strtod
                0x0000b568                pause
                0x0000b574                __cxa_atexit
                0x0000b580                sendto
                0x0000b58c                strtol
                0x0000b598                gmtime
                0x0000b5a4                isalnum
                0x0000b5b0                CyaSSL_MD5_Update
                0x0000b5bc                snprintf
                0x0000b5c8                setpgid
                0x0000b5d4                dup2
                0x0000b5e0                read
                0x0000b5ec                endgrent
                0x0000b5f8                lseek64
                0x0000b604                sched_getaffinity
                0x0000b610                execv
                0x0000b61c                select
                0x0000b628                getifaddrs
                0x0000b634                _exit
                0x0000b640                strncasecmp
                0x0000b64c                initgroups
                0x0000b658                CyaSSL_CTX_new
                0x0000b664                utime
                0x0000b670                __fputc_unlocked
                0x0000b67c                access
                0x0000b688                fdopen
                0x0000b694                stat64
                0x0000b6a0                CyaSSL_MD5_Final
                0x0000b6ac                wait
                0x0000b6b8                getpid
                0x0000b6c4                CyaSSL_CTX_set_options
                0x0000b6d0                __fgetc_unlocked
                0x0000b6dc                strtoull
                0x0000b6e8                sigprocmask
                0x0000b6f4                mktime
                0x0000b700                memmove
                0x0000b70c                strsep
                0x0000b718                pclose
                0x0000b724                getpagesize
                0x0000b730                fclose
                0x0000b73c                setsockopt
                0x0000b748                fread
                0x0000b754                wait3
                0x0000b760                bsearch
                0x0000b76c                chmod
                0x0000b778                vsyslog
                0x0000b784                dprintf
                0x0000b790                tcsetpgrp
                0x0000b79c                lstat64
                0x0000b7a8                time
                0x0000b7b4                fgetc
                0x0000b7c0                strtok
                0x0000b7cc                fileno
                0x0000b7d8                vprintf
                0x0000b7e4                write
                0x0000b7f0                getpwnam
                0x0000b7fc                isatty
                0x0000b808                times
                0x0000b814                closedir
                0x0000b820                strchrnul
                0x0000b82c                longjmp
                0x0000b838                setpriority
                0x0000b844                CyaSSL_read
                0x0000b850                killpg
                0x0000b85c                localtime
                0x0000b868                close
                0x0000b874                fputc
                0x0000b880                getpwuid
                0x0000b88c                setsid
                0x0000b898                regfree
                0x0000b8a4                fgets
                0x0000b8b0                sigaction
                0x0000b8bc                ferror
                0x0000b8c8                umask
                0x0000b8d4                sscanf
                0x0000b8e0                strncpy
                0x0000b8ec                strptime
                0x0000b8f8                tcsetattr
                0x0000b904                sigaddset
                0x0000b910                CyaTLSv1_client_method
                0x0000b91c                link
                0x0000b928                ATP_MSG_SendAndRecv
                0x0000b934                fputs
                0x0000b940                setuid
                0x0000b94c                tcgetattr
                0x0000b958                ATP_UTIL_ForkProcess
                0x0000b964                getppid
                0x0000b970                chdir
                0x0000b97c                unlink
                0x0000b988                execl
                0x0000b994                sync
                0x0000b9a0                regerror
                0x0000b9ac                fflush
                0x0000b9b8                memset
                0x0000b9c4                inet_ntoa
                0x0000b9d0                hstrerror
                0x0000b9dc                if_nametoindex
                0x0000b9e8                qsort
                0x0000b9f4                perror
                0x0000ba00                __h_errno_location
                0x0000ba0c                stime
                0x0000ba18                getservbyport
                0x0000ba24                vfork
                0x0000ba30                getuid
                0x0000ba3c                tcflush
                0x0000ba48                vdprintf
                0x0000ba54                fprintf
                0x0000ba60                recvmsg
                0x0000ba6c                inet_addr
                0x0000ba78                fnmatch
                0x0000ba84                strcspn
                0x0000ba90                abort
                0x0000ba9c                memcmp
                0x0000baa8                vsnprintf
                0x0000bab4                recvfrom
                0x0000bac0                syslog
                0x0000bacc                sigemptyset
                0x0000bad8                sprintf
                0x0000bae4                clearerr
                0x0000baf0                socket
                0x0000bafc                fseek
                0x0000bb08                regcomp
                0x0000bb14                rand
                0x0000bb20                memchr
                0x0000bb2c                isalpha
                0x0000bb38                exit
                0x0000bb44                rename
                0x0000bb50                fork
                0x0000bb5c                raise
                0x0000bb68                strstr
                0x0000bb74                open64
                0x0000bb80                strcmp
                0x0000bb8c                getgrgid
                0x0000bb98                getopt
                0x0000bba4                waitpid
                0x0000bbb0                CyaSSL_connect
                0x0000bbbc                execlp
                0x0000bbc8                setrlimit64
                0x0000bbd4                ungetc
                0x0000bbe0                ftell
                0x0000bbec                mount
                0x0000bbf8                free
                0x0000bc04                atoi
                0x0000bc10                strpbrk
                0x0000bc1c                alarm
                0x0000bc28                CyaSSL_set_fd
                0x0000bc34                strchr
                0x0000bc40                fchmod
                0x0000bc4c                ether_aton
                0x0000bc58                getgid
                0x0000bc64                strerror
                0x0000bc70                isspace
                0x0000bc7c                CyaSSL_write
                0x0000bc88                srand
                0x0000bc94                CyaSSL_MD5_Init
                0x0000bca0                printf
                0x0000bcac                getopt_long
                0x0000bcb8                popen
                0x0000bcc4                getgrnam
                0x0000bcd0                getservbyname
                0x0000bcdc                mkstemp64
                0x0000bce8                strdup
                0x0000bcf4                puts
                0x0000bd00                fscanf
                0x0000bd0c                setgid
                0x0000bd18                ATP_MSG_Init
                0x0000bd24                getrlimit64
                0x0000bd30                execvp
                0x0000bd3c                signal
                0x0000bd48                umount
                0x0000bd54                inet_ntop
                0x0000bd60                reboot
                0x0000bd6c                gethostbyaddr
                0x0000bd78                readdir64
                0x0000bd84                strsignal
                0x0000bd90                pipe
                0x0000bd9c                getaddrinfo
                0x0000bda8                strcpy
                0x0000bdb4                kill
                0x0000bdc0                geteuid
                0x0000bdcc                clearenv
                0x0000bdd8                getgroups

.iplt
 *(SORT(.iplt))

.text           0x0000bde4    0x3c138
 *(SORT(.text.unlikely) SORT(.text.*_unlikely))
 *(SORT(.text.exit) SORT(.text.exit.*))
 *(SORT(.text.startup) SORT(.text.startup.*))
 *(SORT(.text.hot) SORT(.text.hot.*))
 *(SORT(.text) SORT(.stub) SORT(.text.*) SORT(.gnu.linkonce.t.*))
 .text          0x0000bde4       0x3c /home/luokunling/open-HG633/BR-R5-HG633HG658v2-20140408/output/host/usr/arm-unknown-linux-uclibcgnueabi/sysroot/usr/lib/crt1.o
                0x0000bde4                _start
 .text          0x0000be20       0x50 /opt/toolchain_hisi_ipsec/arm-hsan-linux-uclibcgnueabi/bin/../lib/gcc/arm-hsan-linux-uclibcgnueabi/4.4.6/crtbegin.o
 .text.applet_name_compare
                0x0000be70       0x38 libbb/lib.a(appletlib.o)
 .text.lbb_prepare
                0x0000bea8       0x2c libbb/lib.a(appletlib.o)
                0x0000bea8                lbb_prepare
 .text.find_applet_by_name
                0x0000bed4       0x3c libbb/lib.a(appletlib.o)
                0x0000bed4                find_applet_by_name
 .text.bb_show_usage
                0x0000bf10       0xec libbb/lib.a(appletlib.o)
                0x0000bf10                bb_show_usage
 .text.run_applet_no_and_exit
                0x0000bffc       0xfc libbb/lib.a(appletlib.o)
                0x0000bffc                run_applet_no_and_exit
 .text.run_applet_and_exit
                0x0000c0f8      0x264 libbb/lib.a(appletlib.o)
                0x0000c0f8                run_applet_and_exit
 .text.main     0x0000c35c       0x6c libbb/lib.a(appletlib.o)
                0x0000c35c                main
 .text.bb_basename
                0x0000c3c8       0x24 libbb/lib.a(bb_basename.o)
                0x0000c3c8                bb_basename
 .text.concat_path_file
                0x0000c3ec       0x68 libbb/lib.a(concat_path_file.o)
                0x0000c3ec                concat_path_file
 .text.xfunc_die
                0x0000c454       0x50 libbb/lib.a(error_msg_and_die.o)
                0x0000c454                xfunc_die
 .text.bb_error_msg_and_die
                0x0000c4a4       0x24 libbb/lib.a(error_msg_and_die.o)
                0x0000c4a4                bb_error_msg_and_die
 .text.bb_get_last_path_component_nostrip
                0x0000c4c8       0x3c libbb/lib.a(get_last_path_component.o)
                0x0000c4c8                bb_get_last_path_component_nostrip
 .text.bb_get_last_path_component_strip
                0x0000c504       0x50 libbb/lib.a(get_last_path_component.o)
                0x0000c504                bb_get_last_path_component_strip
 .text.last_char_is
                0x0000c554       0x40 libbb/lib.a(last_char_is.o)
                0x0000c554                last_char_is
 .text.bb_perror_msg
                0x0000c594       0x44 libbb/lib.a(perror_msg.o)
                0x0000c594                bb_perror_msg
 .text.bb_simple_perror_msg
                0x0000c5d8       0x10 libbb/lib.a(perror_msg.o)
                0x0000c5d8                bb_simple_perror_msg
 .text.bb_verror_msg
                0x0000c5e8      0x1a0 libbb/lib.a(verror_msg.o)
                0x0000c5e8                bb_verror_msg
 .text.utoa_to_buf
                0x0000c788       0x90 libbb/lib.a(xfuncs.o)
                0x0000c788                utoa_to_buf
 .text.itoa_to_buf
                0x0000c818       0x28 libbb/lib.a(xfuncs.o)
                0x0000c818                itoa_to_buf
 .text.itoa     0x0000c840       0x2c libbb/lib.a(xfuncs.o)
                0x0000c840                itoa
 .text.bb_xioctl
                0x0000c86c       0x20 libbb/lib.a(xfuncs.o)
                0x0000c86c                bb_xioctl
 .text.bb_ioctl_or_warn
                0x0000c88c       0x24 libbb/lib.a(xfuncs.o)
                0x0000c88c                bb_ioctl_or_warn
 .text.ioctl_or_perror
                0x0000c8b0       0x50 libbb/lib.a(xfuncs.o)
                0x0000c8b0                ioctl_or_perror
 .text.ioctl_or_perror_and_die
                0x0000c900       0x50 libbb/lib.a(xfuncs.o)
                0x0000c900                ioctl_or_perror_and_die
 .text.get_terminal_width_height
                0x0000c950       0xe4 libbb/lib.a(xfuncs.o)
                0x0000c950                get_terminal_width_height
 .text.xstat    0x0000ca34       0x28 libbb/lib.a(xfuncs.o)
                0x0000ca34                xstat
 .text.xsendto  0x0000ca5c       0x30 libbb/lib.a(xfuncs.o)
                0x0000ca5c                xsendto
 .text.xbind    0x0000ca8c       0x20 libbb/lib.a(xfuncs.o)
                0x0000ca8c                xbind
 .text.xsocket  0x0000caac       0x20 libbb/lib.a(xfuncs.o)
                0x0000caac                xsocket
 .text.xopendir
                0x0000cacc       0x28 libbb/lib.a(xfuncs.o)
                0x0000cacc                xopendir
 .text.warn_opendir
                0x0000caf4       0x2c libbb/lib.a(xfuncs.o)
                0x0000caf4                warn_opendir
 .text.xchdir   0x0000cb20       0x28 libbb/lib.a(xfuncs.o)
                0x0000cb20                xchdir
 .text.xprint_and_close_file
                0x0000cb48       0x48 libbb/lib.a(xfuncs.o)
                0x0000cb48                xprint_and_close_file
 .text.xasprintf
                0x0000cb90       0x40 libbb/lib.a(xfuncs.o)
                0x0000cb90                xasprintf
 .text.bb_putchar
                0x0000cbd0       0x4c libbb/lib.a(xfuncs.o)
                0x0000cbd0                bb_putchar
 .text.xlseek   0x0000cc1c       0x54 libbb/lib.a(xfuncs.o)
                0x0000cc1c                xlseek
 .text.xsetuid  0x0000cc70       0x20 libbb/lib.a(xfuncs.o)
                0x0000cc70                xsetuid
 .text.xsetgid  0x0000cc90       0x20 libbb/lib.a(xfuncs.o)
                0x0000cc90                xsetgid
 .text.xsetenv  0x0000ccb0       0x24 libbb/lib.a(xfuncs.o)
                0x0000ccb0                xsetenv
 .text.xwrite   0x0000ccd4       0x68 libbb/lib.a(xfuncs.o)
                0x0000ccd4                xwrite
 .text.xdup2    0x0000cd3c       0x24 libbb/lib.a(xfuncs.o)
                0x0000cd3c                xdup2
 .text.xmove_fd
                0x0000cd60       0x24 libbb/lib.a(xfuncs.o)
                0x0000cd60                xmove_fd
 .text.close_on_exec_on
                0x0000cd84       0x18 libbb/lib.a(xfuncs.o)
                0x0000cd84                close_on_exec_on
 .text.ndelay_on
                0x0000cd9c       0x28 libbb/lib.a(xfuncs.o)
                0x0000cd9c                ndelay_on
 .text.xpipe    0x0000cdc4       0x20 libbb/lib.a(xfuncs.o)
                0x0000cdc4                xpipe
 .text.open3_or_warn
                0x0000cde4       0x2c libbb/lib.a(xfuncs.o)
                0x0000cde4                open3_or_warn
 .text.open_or_warn
                0x0000ce10        0xc libbb/lib.a(xfuncs.o)
                0x0000ce10                open_or_warn
 .text.xopen3   0x0000ce1c       0x28 libbb/lib.a(xfuncs.o)
                0x0000ce1c                xopen3
 .text.xopen    0x0000ce44        0xc libbb/lib.a(xfuncs.o)
                0x0000ce44                xopen
 .text.xfopen   0x0000ce50       0x28 libbb/lib.a(xfuncs.o)
                0x0000ce50                xfopen
 .text.xstrdup  0x0000ce78       0x30 libbb/lib.a(xfuncs.o)
                0x0000ce78                xstrdup
 .text.xrealloc
                0x0000cea8       0x34 libbb/lib.a(xfuncs.o)
                0x0000cea8                xrealloc
 .text.xmalloc  0x0000cedc       0x34 libbb/lib.a(xfuncs.o)
                0x0000cedc                xmalloc
 .text.xstrndup
                0x0000cf10       0x58 libbb/lib.a(xfuncs.o)
                0x0000cf10                xstrndup
 .text.xzalloc  0x0000cf68       0x28 libbb/lib.a(xfuncs.o)
                0x0000cf68                xzalloc
 .text.malloc_or_warn
                0x0000cf90       0x3c libbb/lib.a(xfuncs.o)
                0x0000cf90                malloc_or_warn
 .text.xmalloc_readlink
                0x0000cfcc       0x68 libbb/lib.a(xreadlink.o)
                0x0000cfcc                xmalloc_readlink
 .text.xmalloc_readlink_or_warn
                0x0000d034       0x2c libbb/lib.a(xreadlink.o)
                0x0000d034                xmalloc_readlink_or_warn
 .text.bb_full_fd_action
                0x0000d060      0x104 libbb/lib.a(copyfd.o)
 .text.bb_copyfd_eof
                0x0000d164        0xc libbb/lib.a(copyfd.o)
                0x0000d164                bb_copyfd_eof
 .text.bb_copyfd_size
                0x0000d170       0x18 libbb/lib.a(copyfd.o)
                0x0000d170                bb_copyfd_size
 .text.bb_copyfd_exact_size
                0x0000d188       0x48 libbb/lib.a(copyfd.o)
                0x0000d188                bb_copyfd_exact_size
 .text.bb_error_msg
                0x0000d1d0       0x2c libbb/lib.a(error_msg.o)
                0x0000d1d0                bb_error_msg
 .text.full_write
                0x0000d1fc       0x50 libbb/lib.a(full_write.o)
                0x0000d1fc                full_write
 .text.bb_perror_msg_and_die
                0x0000d24c       0x3c libbb/lib.a(perror_msg_and_die.o)
                0x0000d24c                bb_perror_msg_and_die
 .text.bb_simple_perror_msg_and_die
                0x0000d288       0x10 libbb/lib.a(perror_msg_and_die.o)
                0x0000d288                bb_simple_perror_msg_and_die
 .text.safe_read
                0x0000d298       0x48 libbb/lib.a(read.o)
                0x0000d298                safe_read
 .text.full_read
                0x0000d2e0       0x54 libbb/lib.a(read.o)
                0x0000d2e0                full_read
 .text.read_close
                0x0000d334       0x24 libbb/lib.a(read.o)
                0x0000d334                read_close
 .text.xmalloc_open_read_close
                0x0000d358       0xd0 libbb/lib.a(read.o)
                0x0000d358                xmalloc_open_read_close
 .text.open_read_close
                0x0000d428       0x34 libbb/lib.a(read.o)
                0x0000d428                open_read_close
 .text.xread    0x0000d45c       0x28 libbb/lib.a(read.o)
                0x0000d45c                xread
 .text.xread_char
                0x0000d484       0x1c libbb/lib.a(read.o)
                0x0000d484                xread_char
 .text.safe_write
                0x0000d4a0       0x48 libbb/lib.a(safe_write.o)
                0x0000d4a0                safe_write
 .text.su_main  0x0000d4e8      0x1f4 loginutils/lib.a(su.o)
                0x0000d4e8                su_main
 .text.DeleteFile
                0x0000d6dc       0xb4 miscutils/lib.a(crond.o)
 .text.crondlog
                0x0000d790       0xac miscutils/lib.a(crond.o)
 .text.ParseField
                0x0000d83c      0x284 miscutils/lib.a(crond.o)
 .text.SynchronizeFile
                0x0000dac0      0x2e8 miscutils/lib.a(crond.o)
 .text.CheckUpdates
                0x0000dda8       0x74 miscutils/lib.a(crond.o)
 .text.SynchronizeDir
                0x0000de1c       0xf8 miscutils/lib.a(crond.o)
 .text.crond_main
                0x0000df14      0x524 miscutils/lib.a(crond.o)
                0x0000df14                crond_main
 .text.ChangeUser
                0x0000e438       0xb0 miscutils/lib.a(crontab.o)
 .text.crontab_main
                0x0000e4e8      0x64c miscutils/lib.a(crontab.o)
                0x0000e4e8                crontab_main
 .text.makedevs_main
                0x0000eb34      0x4c0 miscutils/lib.a(makedevs.o)
                0x0000eb34                makedevs_main
 .text.taskset_main
                0x0000eff4      0x1a8 miscutils/lib.a(taskset.o)
                0x0000eff4                taskset_main
 .text.insmod_main
                0x0000f19c      0x12c modutils/lib.a(insmod.o)
                0x0000f19c                insmod_main
 .text.ifconfig_main
                0x0000f2c8      0x518 networking/lib.a(ifconfig.o)
                0x0000f2c8                ifconfig_main
 .text.get_afntype
                0x0000f7e0       0x34 networking/lib.a(interface.o)
 .text.hexchar2int
                0x0000f814       0x28 networking/lib.a(interface.o)
 .text.in_ether
                0x0000f83c       0xb8 networking/lib.a(interface.o)
 .text.get_hwntype
                0x0000f8f4       0x34 networking/lib.a(interface.o)
                0x0000f8f4                get_hwntype
 .text.get_hwtype
                0x0000f928       0x48 networking/lib.a(interface.o)
                0x0000f928                get_hwtype
 .text.get_aftype
                0x0000f970       0x48 networking/lib.a(interface.o)
                0x0000f970                get_aftype
 .text.add_interface
                0x0000f9b8       0x98 networking/lib.a(interface.o)
 .text.if_readconf
                0x0000fa50       0xd4 networking/lib.a(interface.o)
 .text.if_readlist_proc
                0x0000fb24      0x314 networking/lib.a(interface.o)
 .text.do_if_fetch
                0x0000fe38      0x344 networking/lib.a(interface.o)
 .text.print_bytes_scaled
                0x0001017c       0x9c networking/lib.a(interface.o)
 .text.UNSPEC_print
                0x00010218       0x68 networking/lib.a(interface.o)
 .text.UNSPEC_sprint
                0x00010280       0x28 networking/lib.a(interface.o)
 .text.INET6_input
                0x000102a8       0x10 networking/lib.a(interface.o)
 .text.INET_input
                0x000102b8       0x14 networking/lib.a(interface.o)
 .text.INET_sprint
                0x000102cc       0x54 networking/lib.a(interface.o)
 .text.INET6_sprint
                0x00010320       0x50 networking/lib.a(interface.o)
 .text.ife_print
                0x00010370      0x5d0 networking/lib.a(interface.o)
 .text.display_interfaces
                0x00010940       0xd4 networking/lib.a(interface.o)
                0x00010940                display_interfaces
 .text.pr_ether
                0x00010a14       0x54 networking/lib.a(interface.o)
 .text.do_info  0x00010a68       0xa0 networking/lib.a(netstat.o)
 .text.netstat_main
                0x00010b08      0x27c networking/lib.a(netstat.o)
                0x00010b08                netstat_main
 .text.build_ipv4_addr
                0x00010d84       0x28 networking/lib.a(netstat.o)
 .text.unix_do_one
                0x00010dac      0x248 networking/lib.a(netstat.o)
 .text.build_ipv6_addr
                0x00010ff4       0x70 networking/lib.a(netstat.o)
 .text.ip_port_str
                0x00011064       0x98 networking/lib.a(netstat.o)
 .text.raw_do_one
                0x000110fc      0x200 networking/lib.a(netstat.o)
 .text.udp_do_one
                0x000112fc      0x20c networking/lib.a(netstat.o)
 .text.tcp_do_one
                0x00011508      0x1bc networking/lib.a(netstat.o)
 .text.set_flags
                0x000116c4       0x4c networking/lib.a(route.o)
 .text.kw_lookup
                0x00011710       0x80 networking/lib.a(route.o)
 .text.INET6_displayroutes
                0x00011790      0x210 networking/lib.a(route.o)
 .text.bb_displayroutes
                0x000119a0      0x1f8 networking/lib.a(route.o)
                0x000119a0                bb_displayroutes
 .text.route_main
                0x00011b98      0x734 networking/lib.a(route.o)
                0x00011b98                route_main
 .text.xfind_str
                0x000122cc       0x40 networking/lib.a(smuxctl.o)
 .text.smuxctl_main
                0x0001230c       0xf4 networking/lib.a(smuxctl.o)
                0x0001230c                smuxctl_main
 .text.in_cksum
                0x00012400       0x4c networking/lib.a(traceroute.o)
 .text.setsin   0x0001244c       0x2c networking/lib.a(traceroute.o)
 .text.init_diag_para
                0x00012478       0x4c networking/lib.a(traceroute.o)
                0x00012478                init_diag_para
 .text.freehostinfo
                0x000124c4       0x28 networking/lib.a(traceroute.o)
 .text.ifaddrlist
                0x000124ec      0x208 networking/lib.a(traceroute.o)
 .text.gethostinfo
                0x000126f4      0x118 networking/lib.a(traceroute.o)
 .text.TRouteToLogWeb
                0x0001280c      0x2e8 networking/lib.a(traceroute.o)
 .text.traceroute_main
                0x00012af4     0x1504 networking/lib.a(traceroute.o)
                0x00012af4                traceroute_main
 .text.xfind_str
                0x00013ff8       0x40 networking/lib.a(vconfig.o)
 .text.vconfig_main
                0x00014038      0x17c networking/lib.a(vconfig.o)
                0x00014038                vconfig_main
 .text.pick     0x000141b4       0x54 networking/lib.a(zcip.o)
 .text.run      0x00014208       0xb8 networking/lib.a(zcip.o)
 .text.T.21     0x000142c0       0xe8 networking/lib.a(zcip.o)
 .text.zcip_main
                0x000143a8      0x5ec networking/lib.a(zcip.o)
                0x000143a8                zcip_main
 .text.alloc_dhcp_option
                0x00014994       0x5c networking/udhcp/lib.a(dhcpc.o)
 .text.client_background
                0x000149f0       0x48 networking/udhcp/lib.a(dhcpc.o)
 .text.change_listen_mode
                0x00014a38       0x3c networking/udhcp/lib.a(dhcpc.o)
 .text.perform_release
                0x00014a74       0xb4 networking/udhcp/lib.a(dhcpc.o)
 .text.udhcpc_main
                0x00014b28      0xb04 networking/udhcp/lib.a(dhcpc.o)
                0x00014b28                udhcpc_main
 .text.udhcpd_main
                0x0001562c      0x5d0 networking/udhcp/lib.a(dhcpd.o)
                0x0001562c                udhcpd_main
 .text.find_option
                0x00015bfc       0x28 networking/udhcp/lib.a(files.o)
                0x00015bfc                find_option
 .text.read_leases
                0x00015c24      0x104 networking/udhcp/lib.a(files.o)
                0x00015c24                read_leases
 .text.write_leases
                0x00015d28      0x134 networking/udhcp/lib.a(files.o)
                0x00015d28                write_leases
 .text.read_yn  0x00015e5c       0x54 networking/udhcp/lib.a(files.o)
 .text.read_config
                0x00015eb0      0x1f4 networking/udhcp/lib.a(files.o)
                0x00015eb0                read_config
 .text.read_u32
                0x000160a4       0x38 networking/udhcp/lib.a(files.o)
 .text.read_str
                0x000160dc       0x2c networking/udhcp/lib.a(files.o)
 .text.read_ip  0x00016108       0x38 networking/udhcp/lib.a(files.o)
 .text.read_staticlease
                0x00016140       0x78 networking/udhcp/lib.a(files.o)
 .text.read_opt
                0x000161b8      0x334 networking/udhcp/lib.a(files.o)
 .text.find_lease_by_yiaddr
                0x000164ec       0x54 networking/udhcp/lib.a(leases.o)
                0x000164ec                find_lease_by_yiaddr
 .text.find_lease_by_chaddr
                0x00016540       0x68 networking/udhcp/lib.a(leases.o)
                0x00016540                find_lease_by_chaddr
 .text.lease_expired
                0x000165a8       0x24 networking/udhcp/lib.a(leases.o)
                0x000165a8                lease_expired
 .text.add_lease
                0x000165cc      0x134 networking/udhcp/lib.a(leases.o)
                0x000165cc                add_lease
 .text.find_address
                0x00016700       0xe8 networking/udhcp/lib.a(leases.o)
                0x00016700                find_address
 .text.udhcp_end_option
                0x000167e8       0x34 networking/udhcp/lib.a(options.o)
                0x000167e8                udhcp_end_option
 .text.udhcp_add_option_string
                0x0001681c       0x6c networking/udhcp/lib.a(options.o)
                0x0001681c                udhcp_add_option_string
 .text.udhcp_add_simple_option
                0x00016888       0x98 networking/udhcp/lib.a(options.o)
                0x00016888                udhcp_add_simple_option
 .text.udhcp_get_option
                0x00016920      0x124 networking/udhcp/lib.a(options.o)
                0x00016920                udhcp_get_option
 .text.udhcp_checksum
                0x00016a44       0x6c networking/udhcp/lib.a(packet.o)
                0x00016a44                udhcp_checksum
 .text.udhcp_send_kernel_packet
                0x00016ab0       0xf8 networking/udhcp/lib.a(packet.o)
                0x00016ab0                udhcp_send_kernel_packet
 .text.udhcp_send_raw_packet
                0x00016ba8      0x1fc networking/udhcp/lib.a(packet.o)
                0x00016ba8                udhcp_send_raw_packet
 .text.udhcp_recv_packet
                0x00016da4       0xdc networking/udhcp/lib.a(packet.o)
                0x00016da4                udhcp_recv_packet
 .text.udhcp_init_header
                0x00016e80       0xa0 networking/udhcp/lib.a(packet.o)
                0x00016e80                udhcp_init_header
 .text.sprintip
                0x00016f20       0x38 networking/udhcp/lib.a(script.o)
 .text.udhcp_run_script
                0x00016f58      0x698 networking/udhcp/lib.a(script.o)
                0x00016f58                udhcp_run_script
 .text.init_packet
                0x000175f0      0x104 networking/udhcp/lib.a(serverpacket.o)
 .text.add_bootp_options
                0x000176f4       0x60 networking/udhcp/lib.a(serverpacket.o)
 .text.send_packet
                0x00017754       0xd8 networking/udhcp/lib.a(serverpacket.o)
 .text.send_inform
                0x0001782c       0x70 networking/udhcp/lib.a(serverpacket.o)
                0x0001782c                send_inform
 .text.sendNAK  0x0001789c       0x34 networking/udhcp/lib.a(serverpacket.o)
                0x0001789c                sendNAK
 .text.sendACK  0x000178d0      0x140 networking/udhcp/lib.a(serverpacket.o)
                0x000178d0                sendACK
 .text.sendOffer
                0x00017a10      0x24c networking/udhcp/lib.a(serverpacket.o)
                0x00017a10                sendOffer
 .text.udhcp_sp_read
                0x00017c5c       0x4c networking/udhcp/lib.a(signalpipe.o)
                0x00017c5c                udhcp_sp_read
 .text.udhcp_sp_fd_set
                0x00017ca8       0x88 networking/udhcp/lib.a(signalpipe.o)
                0x00017ca8                udhcp_sp_fd_set
 .text.udhcp_sp_setup
                0x00017d30       0x60 networking/udhcp/lib.a(signalpipe.o)
                0x00017d30                udhcp_sp_setup
 .text.signal_handler
                0x00017d90       0x38 networking/udhcp/lib.a(signalpipe.o)
 .text.udhcp_listen_socket
                0x00017dc8       0xd0 networking/udhcp/lib.a(socket.o)
                0x00017dc8                udhcp_listen_socket
 .text.udhcp_read_interface
                0x00017e98      0x12c networking/udhcp/lib.a(socket.o)
                0x00017e98                udhcp_read_interface
 .text.reservedIp
                0x00017fc4       0x2c networking/udhcp/lib.a(static_leases.o)
                0x00017fc4                reservedIp
 .text.getIpByMac
                0x00017ff0       0x48 networking/udhcp/lib.a(static_leases.o)
                0x00017ff0                getIpByMac
 .text.addStaticLease
                0x00018038       0x50 networking/udhcp/lib.a(static_leases.o)
                0x00018038                addStaticLease
 .text.arpping  0x00018088      0x1ec networking/udhcp/lib.a(arpping.o)
                0x00018088                arpping
 .text.get_raw_packet
                0x00018274      0x1b8 networking/udhcp/lib.a(clientpacket.o)
                0x00018274                get_raw_packet
 .text.init_packet
                0x0001842c       0x6c networking/udhcp/lib.a(clientpacket.o)
 .text.add_requests
                0x00018498       0xa0 networking/udhcp/lib.a(clientpacket.o)
 .text.send_renew
                0x00018538       0xac networking/udhcp/lib.a(clientpacket.o)
                0x00018538                send_renew
 .text.send_discover
                0x000185e4       0xa4 networking/udhcp/lib.a(clientpacket.o)
                0x000185e4                send_discover
 .text.send_selecting
                0x00018688       0xb0 networking/udhcp/lib.a(clientpacket.o)
                0x00018688                send_selecting
 .text.random_xid
                0x00018738       0x34 networking/udhcp/lib.a(clientpacket.o)
                0x00018738                random_xid
 .text.send_release
                0x0001876c       0x84 networking/udhcp/lib.a(clientpacket.o)
                0x0001876c                send_release
 .text.raw_socket
                0x000187f0       0x50 networking/udhcp/lib.a(clientsocket.o)
                0x000187f0                raw_socket
 .text.kill_main
                0x00018840      0x2c0 procps/lib.a(kill.o)
                0x00018840                kill_main
 .text.ps_main  0x00018b00       0xd0 procps/lib.a(ps.o)
                0x00018b00                ps_main
 .text.renice_main
                0x00018bd0      0x190 procps/lib.a(renice.o)
                0x00018bd0                renice_main
 .text.mem_sort
                0x00018d60       0x20 procps/lib.a(top.o)
 .text.pcpu_sort
                0x00018d80       0x10 procps/lib.a(top.o)
 .text.time_sort
                0x00018d90       0x20 procps/lib.a(top.o)
 .text.mult_lvl_cmp
                0x00018db0       0x48 procps/lib.a(top.o)
 .text.do_stats
                0x00018df8      0x228 procps/lib.a(top.o)
 .text.clearmems
                0x00019020       0x2c procps/lib.a(top.o)
 .text.display_process_list
                0x0001904c      0x570 procps/lib.a(top.o)
 .text.top_main
                0x000195bc      0x218 procps/lib.a(top.o)
                0x000195bc                top_main
 .text.stunalloc
                0x000197d4       0x28 shell/lib.a(ash.o)
 .text.setstackmark
                0x000197fc       0x34 shell/lib.a(ash.o)
 .text.prefix   0x00019830       0x38 shell/lib.a(ash.o)
 .text.is_number
                0x00019868       0x2c shell/lib.a(ash.o)
 .text.varcmp   0x00019894       0x44 shell/lib.a(ash.o)
 .text.varequal
                0x000198d8       0x18 shell/lib.a(ash.o)
 .text.hashvar  0x000198f0       0x54 shell/lib.a(ash.o)
 .text.vpcmp    0x00019944        0xc shell/lib.a(ash.o)
 .text.findvar  0x00019950       0x40 shell/lib.a(ash.o)
 .text.setprompt
                0x00019990       0x64 shell/lib.a(ash.o)
 .text.set_curjob
                0x000199f4       0x70 shell/lib.a(ash.o)
 .text.jobno    0x00019a64       0x28 shell/lib.a(ash.o)
 .text.getstatus
                0x00019a8c       0x54 shell/lib.a(ash.o)
 .text.esclen   0x00019ae0       0x28 shell/lib.a(ash.o)
 .text.falsecmd
                0x00019b08        0x8 shell/lib.a(ash.o)
 .text.truecmd  0x00019b10        0x8 shell/lib.a(ash.o)
 .text.bltincmd
                0x00019b18       0x10 shell/lib.a(ash.o)
 .text.pungetc  0x00019b28       0x2c shell/lib.a(ash.o)
 .text.changemail
                0x00019b54       0x14 shell/lib.a(ash.o)
 .text.lookupvar
                0x00019b68       0x4c shell/lib.a(ash.o)
 .text.bltinlookup
                0x00019bb4       0x5c shell/lib.a(ash.o)
 .text.calcsize
                0x00019c10      0x130 shell/lib.a(ash.o)
 .text.sizenodelist
                0x00019d40       0x3c shell/lib.a(ash.o)
 .text.ignoresig
                0x00019d7c       0x40 shell/lib.a(ash.o)
 .text.SIT      0x00019dbc       0x8c shell/lib.a(ash.o)
 .text.endofname
                0x00019e48       0x48 shell/lib.a(ash.o)
 .text.goodname
                0x00019e90       0x1c shell/lib.a(ash.o)
 .text.isassignment
                0x00019eac       0x30 shell/lib.a(ash.o)
 .text.freealias
                0x00019edc       0x48 shell/lib.a(ash.o)
 .text.freefunc
                0x00019f24       0x28 shell/lib.a(ash.o)
 .text.freeparam
                0x00019f4c       0x44 shell/lib.a(ash.o)
 .text.scanright
                0x00019f90       0xa8 shell/lib.a(ash.o)
 .text.scanleft
                0x0001a038       0x80 shell/lib.a(ash.o)
 .text.__lookupalias
                0x0001a0b8       0x78 shell/lib.a(ash.o)
 .text.lookupalias
                0x0001a130       0x30 shell/lib.a(ash.o)
 .text.msort    0x0001a160       0xc4 shell/lib.a(ash.o)
 .text.pstrcmp  0x0001a224       0x18 shell/lib.a(ash.o)
 .text.setsignal
                0x0001a23c      0x1a0 shell/lib.a(ash.o)
 .text.nodeckstrdup
                0x0001a3dc       0x44 shell/lib.a(ash.o)
 .text.copynode
                0x0001a420      0x150 shell/lib.a(ash.o)
 .text.copynodelist
                0x0001a570       0x54 shell/lib.a(ash.o)
 .text.raise_exception
                0x0001a5c4       0x28 shell/lib.a(ash.o)
 .text.raise_interrupt
                0x0001a5ec       0x8c shell/lib.a(ash.o)
 .text.int_on   0x0001a678       0x3c shell/lib.a(ash.o)
 .text.fmtstr   0x0001a6b4       0x4c shell/lib.a(ash.o)
 .text.sprint_status
                0x0001a700       0xcc shell/lib.a(ash.o)
 .text.removerecordregions
                0x0001a7cc      0x118 shell/lib.a(ash.o)
 .text.freejob  0x0001a8e4       0x84 shell/lib.a(ash.o)
 .text.unalias  0x0001a968       0x50 shell/lib.a(ash.o)
 .text.popstring
                0x0001a9b8       0xdc shell/lib.a(ash.o)
 .text.popfile  0x0001aa94       0xb0 shell/lib.a(ash.o)
 .text.popallfiles
                0x0001ab44       0x30 shell/lib.a(ash.o)
 .text.outstr   0x0001ab74       0x28 shell/lib.a(ash.o)
 .text.out1str  0x0001ab9c       0x10 shell/lib.a(ash.o)
 .text.flush_stderr
                0x0001abac       0x34 shell/lib.a(ash.o)
 .text.out2str  0x0001abe0       0x1c shell/lib.a(ash.o)
 .text.stoppedjobs
                0x0001abfc       0x60 shell/lib.a(ash.o)
 .text.dowait   0x0001ac5c      0x1b0 shell/lib.a(ash.o)
 .text.popstackmark
                0x0001ae0c       0x84 shell/lib.a(ash.o)
 .text.flush_stdout_stderr
                0x0001ae90       0x44 shell/lib.a(ash.o)
 .text.delete_cmd_entry
                0x0001aed4       0x54 shell/lib.a(ash.o)
 .text.clearcmdentry
                0x0001af28       0xa0 shell/lib.a(ash.o)
 .text.changepath
                0x0001afc8      0x118 shell/lib.a(ash.o)
 .text.onsig    0x0001b0e0       0x60 shell/lib.a(ash.o)
 .text.force_int_on
                0x0001b140       0x2c shell/lib.a(ash.o)
 .text.errmsg   0x0001b16c       0x24 shell/lib.a(ash.o)
 .text.pgetc    0x0001b190      0x304 shell/lib.a(ash.o)
 .text.pgetc2   0x0001b494       0x18 shell/lib.a(ash.o)
 .text.tokname  0x0001b4ac       0x50 shell/lib.a(ash.o)
 .text.findkwd  0x0001b4fc       0x2c shell/lib.a(ash.o)
 .text.find_builtin
                0x0001b528       0x2c shell/lib.a(ash.o)
 .text.out1fmt  0x0001b554       0x4c shell/lib.a(ash.o)
 .text.printlim
                0x0001b5a0       0x5c shell/lib.a(ash.o)
 .text.helpcmd  0x0001b5fc       0x80 shell/lib.a(ash.o)
 .text.timescmd
                0x0001b67c       0xac shell/lib.a(ash.o)
 .text.echocmd  0x0001b728       0x10 shell/lib.a(ash.o)
 .text.testcmd  0x0001b738       0x10 shell/lib.a(ash.o)
 .text.evalbltin
                0x0001b748       0xfc shell/lib.a(ash.o)
 .text.T.882    0x0001b844       0x74 shell/lib.a(ash.o)
 .text.showpipe
                0x0001b8b8       0x4c shell/lib.a(ash.o)
 .text.showjob  0x0001b904      0x1d0 shell/lib.a(ash.o)
 .text.showjobs
                0x0001bad4       0x6c shell/lib.a(ash.o)
 .text.ash_vmsg
                0x0001bb40       0xd4 shell/lib.a(ash.o)
 .text.ash_msg  0x0001bc14       0x28 shell/lib.a(ash.o)
 .text.ash_vmsg_and_raise
                0x0001bc3c       0x1c shell/lib.a(ash.o)
 .text.ash_msg_and_raise_error
                0x0001bc58       0x20 shell/lib.a(ash.o)
 .text.ckrealloc
                0x0001bc78       0x20 shell/lib.a(ash.o)
 .text.ckmalloc
                0x0001bc98        0xc shell/lib.a(ash.o)
 .text.recordregion
                0x0001bca4       0x78 shell/lib.a(ash.o)
 .text.cmdlookup
                0x0001bd1c       0xe0 shell/lib.a(ash.o)
 .text.pushfile
                0x0001bdfc       0x80 shell/lib.a(ash.o)
 .text.setinputstring
                0x0001be7c       0x70 shell/lib.a(ash.o)
 .text.pushstring
                0x0001beec       0xb0 shell/lib.a(ash.o)
 .text.tryexec  0x0001bf9c       0xbc shell/lib.a(ash.o)
 .text.makejob  0x0001c058      0x1b8 shell/lib.a(ash.o)
 .text.varunset
                0x0001c210       0x64 shell/lib.a(ash.o)
 .text.ckstrdup
                0x0001c274       0x20 shell/lib.a(ash.o)
 .text.setparam
                0x0001c294       0x8c shell/lib.a(ash.o)
 .text.setvareq
                0x0001c320      0x110 shell/lib.a(ash.o)
 .text.listsetvar
                0x0001c430       0x50 shell/lib.a(ash.o)
 .text.setvar   0x0001c480       0xe0 shell/lib.a(ash.o)
 .text.arith    0x0001c560      0x69c shell/lib.a(ash.o)
 .text.arith_lookup_val
                0x0001cbfc       0xa0 shell/lib.a(ash.o)
 .text.unsetvar
                0x0001cc9c       0xb0 shell/lib.a(ash.o)
 .text.setvarsafe
                0x0001cd4c       0x9c shell/lib.a(ash.o)
 .text.localcmd
                0x0001cde8      0x13c shell/lib.a(ash.o)
 .text.setpwd   0x0001cf24       0xe0 shell/lib.a(ash.o)
 .text.xtcsetpgrp
                0x0001d004       0x20 shell/lib.a(ash.o)
 .text.waitforjob
                0x0001d024       0x88 shell/lib.a(ash.o)
 .text.setjobctl
                0x0001d0ac      0x1b4 shell/lib.a(ash.o)
 .text.optschanged
                0x0001d260       0x9c shell/lib.a(ash.o)
 .text.copyfd   0x0001d2fc       0x4c shell/lib.a(ash.o)
 .text.popredir
                0x0001d348       0xc8 shell/lib.a(ash.o)
 .text.clearredir
                0x0001d410       0x3c shell/lib.a(ash.o)
 .text.raise_error_syntax
                0x0001d44c       0x10 shell/lib.a(ash.o)
 .text.raise_error_unexpected_syntax
                0x0001d45c       0x5c shell/lib.a(ash.o)
 .text.dash_arith
                0x0001d4b8       0x8c shell/lib.a(ash.o)
 .text.stalloc  0x0001d544       0x98 shell/lib.a(ash.o)
 .text.ststrdup
                0x0001d5dc       0x2c shell/lib.a(ash.o)
 .text.addfname
                0x0001d608       0x3c shell/lib.a(ash.o)
 .text.expmeta  0x0001d644      0x294 shell/lib.a(ash.o)
 .text.makename
                0x0001d8d8       0x44 shell/lib.a(ash.o)
 .text.fixredir
                0x0001d91c       0x6c shell/lib.a(ash.o)
 .text.growstackblock
                0x0001d988      0x104 shell/lib.a(ash.o)
 .text.makestrspace
                0x0001da8c       0x44 shell/lib.a(ash.o)
 .text.memtodest
                0x0001dad0       0x90 shell/lib.a(ash.o)
 .text.stack_nputstr
                0x0001db60       0x30 shell/lib.a(ash.o)
 .text.stack_putstr
                0x0001db90       0x24 shell/lib.a(ash.o)
 .text.cvtnum   0x0001dbb4       0x48 shell/lib.a(ash.o)
 .text.cmdputs  0x0001dbfc      0x1fc shell/lib.a(ash.o)
 .text.cmdtxt   0x0001ddf8      0x33c shell/lib.a(ash.o)
 .text.cmdlist  0x0001e134       0x54 shell/lib.a(ash.o)
 .text._rmescapes
                0x0001e188      0x128 shell/lib.a(ash.o)
 .text.preglob  0x0001e2b0       0x10 shell/lib.a(ash.o)
 .text.single_quote
                0x0001e2c0       0xc0 shell/lib.a(ash.o)
 .text.printalias
                0x0001e380       0x2c shell/lib.a(ash.o)
 .text.aliascmd
                0x0001e3ac      0x170 shell/lib.a(ash.o)
 .text.growstackstr
                0x0001e51c       0x5c shell/lib.a(ash.o)
 .text._STPUTC  0x0001e578       0x38 shell/lib.a(ash.o)
 .text.listvars
                0x0001e5b0       0x98 shell/lib.a(ash.o)
 .text.showvars
                0x0001e648       0xd0 shell/lib.a(ash.o)
 .text.padvance
                0x0001e718      0x114 shell/lib.a(ash.o)
 .text.readtoken1
                0x0001e82c      0xe1c shell/lib.a(ash.o)
 .text.parseheredoc
                0x0001f648       0xac shell/lib.a(ash.o)
 .text.xxreadtoken
                0x0001f6f4      0x198 shell/lib.a(ash.o)
 .text.readtoken
                0x0001f88c       0xe8 shell/lib.a(ash.o)
 .text.parsefname
                0x0001f974      0x144 shell/lib.a(ash.o)
 .text.peektoken
                0x0001fab8       0x30 shell/lib.a(ash.o)
 .text.list     0x0001fae8      0x1ac shell/lib.a(ash.o)
 .text.parse_command
                0x0001fc94      0x6fc shell/lib.a(ash.o)
 .text.pipeline
                0x00020390       0xec shell/lib.a(ash.o)
 .text.parsecmd
                0x0002047c       0x74 shell/lib.a(ash.o)
 .text.forkshell
                0x000204f0      0x32c shell/lib.a(ash.o)
 .text.nextopt  0x0002081c      0x110 shell/lib.a(ash.o)
 .text.unsetcmd
                0x0002092c       0x90 shell/lib.a(ash.o)
 .text.unaliascmd
                0x000209bc       0xfc shell/lib.a(ash.o)
 .text.cdopt    0x00020ab8       0x3c shell/lib.a(ash.o)
 .text.pwdcmd   0x00020af4       0x58 shell/lib.a(ash.o)
 .text.exportcmd
                0x00020b4c       0xc4 shell/lib.a(ash.o)
 .text.number   0x00020c10       0x30 shell/lib.a(ash.o)
 .text.returncmd
                0x00020c40       0x44 shell/lib.a(ash.o)
 .text.getoptsreset
                0x00020c84       0x24 shell/lib.a(ash.o)
 .text.exitcmd  0x00020ca8       0x48 shell/lib.a(ash.o)
 .text.getjob   0x00020cf0      0x184 shell/lib.a(ash.o)
 .text.jobscmd  0x00020e74       0x98 shell/lib.a(ash.o)
 .text.waitcmd  0x00020f0c      0x130 shell/lib.a(ash.o)
 .text.fg_bgcmd
                0x0002103c      0x150 shell/lib.a(ash.o)
 .text.killcmd  0x0002118c       0x98 shell/lib.a(ash.o)
 .text.shiftcmd
                0x00021224       0xb8 shell/lib.a(ash.o)
 .text.letcmd   0x000212dc       0x48 shell/lib.a(ash.o)
 .text.breakcmd
                0x00021324       0x8c shell/lib.a(ash.o)
 .text.getoptscmd
                0x000213b0      0x330 shell/lib.a(ash.o)
 .text.umaskcmd
                0x000216e0      0x1c0 shell/lib.a(ash.o)
 .text.options  0x000218a0      0x254 shell/lib.a(ash.o)
 .text.setcmd   0x00021af4       0x70 shell/lib.a(ash.o)
 .text.ulimitcmd
                0x00021b64      0x21c shell/lib.a(ash.o)
 .text.setinputfile
                0x00021d80      0x108 shell/lib.a(ash.o)
 .text.trapcmd  0x00021e88      0x120 shell/lib.a(ash.o)
 .text.readcmd  0x00021fa8      0x260 shell/lib.a(ash.o)
 .text.cdcmd    0x00022208      0x398 shell/lib.a(ash.o)
 .text.ash_msg_and_raise
                0x000225a0       0x1c shell/lib.a(ash.o)
 .text.shellexec
                0x000225bc      0x128 shell/lib.a(ash.o)
 .text.execcmd  0x000226e4       0x54 shell/lib.a(ash.o)
 .text.expandarg
                0x00022738      0x448 shell/lib.a(ash.o)
 .text.expredir
                0x00022b80       0xbc shell/lib.a(ash.o)
 .text.redirect
                0x00022c3c      0x4d4 shell/lib.a(ash.o)
 .text.redirectsafe
                0x00023110       0xb8 shell/lib.a(ash.o)
 .text.evaltree
                0x000231c8      0x34c shell/lib.a(ash.o)
 .text.evalstring
                0x00023514       0x78 shell/lib.a(ash.o)
 .text.evalcmd  0x0002358c       0x90 shell/lib.a(ash.o)
 .text.exitshell
                0x0002361c       0x7c shell/lib.a(ash.o)
 .text.argstr   0x00023698      0x60c shell/lib.a(ash.o)
 .text.subevalvar
                0x00023ca4      0x1a8 shell/lib.a(ash.o)
 .text.evalvar  0x00023e4c      0x588 shell/lib.a(ash.o)
 .text.evalloop
                0x000243d4      0x10c shell/lib.a(ash.o)
 .text.cmdloop  0x000244e0      0x23c shell/lib.a(ash.o)
 .text.find_command
                0x0002471c      0x408 shell/lib.a(ash.o)
 .text.describe_command
                0x00024b24      0x1f0 shell/lib.a(ash.o)
 .text.typecmd  0x00024d14       0x68 shell/lib.a(ash.o)
 .text.commandcmd
                0x00024d7c       0x60 shell/lib.a(ash.o)
 .text.hashcmd  0x00024ddc      0x194 shell/lib.a(ash.o)
 .text.evalpipe
                0x00024f70      0x1b4 shell/lib.a(ash.o)
 .text.dotcmd   0x00025124      0x170 shell/lib.a(ash.o)
 .text.read_profile
                0x00025294       0x34 shell/lib.a(ash.o)
 .text.ash_main
                0x000252c8      0x608 shell/lib.a(ash.o)
                0x000252c8                ash_main
 .text.evalfun  0x000258d0      0x238 shell/lib.a(ash.o)
 .text.evalsubshell
                0x00025b08       0xd0 shell/lib.a(ash.o)
 .text.evalcase
                0x00025bd8      0x158 shell/lib.a(ash.o)
 .text.evalfor  0x00025d30      0x140 shell/lib.a(ash.o)
 .text.evalcommand
                0x00025e70      0x5c8 shell/lib.a(ash.o)
 .text.append_mount_options
                0x00026438       0xf4 util-linux/lib.a(mount.o)
 .text.parse_mount_options
                0x0002652c      0x110 util-linux/lib.a(mount.o)
 .text.mount_it_now
                0x0002663c       0x8c util-linux/lib.a(mount.o)
 .text.singlemount
                0x000266c8      0x220 util-linux/lib.a(mount.o)
 .text.mount_main
                0x000268e8      0x400 util-linux/lib.a(mount.o)
                0x000268e8                mount_main
 .text.umount_main
                0x00026ce8      0x318 util-linux/lib.a(umount.o)
                0x00026ce8                umount_main
 .text.arp_show
                0x00027000      0x330 atpconfig/lib.a(arp.o)
 .text.arp_main
                0x00027330      0xa74 atpconfig/lib.a(arp.o)
                0x00027330                arp_main
 .text.ATPUpgradePrecheckInit
                0x00027da4       0x20 atpconfig/lib.a(atpcommon.o)
                0x00027da4                ATPUpgradePrecheckInit
 .text.ATPUpgradePrecheckProc
                0x00027dc4      0x13c atpconfig/lib.a(atpcommon.o)
                0x00027dc4                ATPUpgradePrecheckProc
 .text.ATPUpgradePrecheckDestroy
                0x00027f00       0x18 atpconfig/lib.a(atpcommon.o)
                0x00027f00                ATPUpgradePrecheckDestroy
 .text.AddOrDelTablesRule
                0x00027f18      0x10c atpconfig/lib.a(atpcommon.o)
                0x00027f18                AddOrDelTablesRule
 .text.ATP_UTIL_GetIfcStatInfo
                0x00028024      0x26c atpconfig/lib.a(atpcommon.o)
                0x00028024                ATP_UTIL_GetIfcStatInfo
 .text.GetCurDateTime
                0x00028290       0x88 atpconfig/lib.a(atpcommon.o)
                0x00028290                GetCurDateTime
 .text.diag_copy_fd_with_timeout
                0x00028318      0x108 atpconfig/lib.a(atpcommon.o)
                0x00028318                diag_copy_fd_with_timeout
 .text.SetUpDiagState
                0x00028420      0x138 atpconfig/lib.a(atpcommon.o)
                0x00028420                SetUpDiagState
 .text.SetDownDiagState
                0x00028558      0x14c atpconfig/lib.a(atpcommon.o)
                0x00028558                SetDownDiagState
 .text.SetDiagState
                0x000286a4       0x14 atpconfig/lib.a(atpcommon.o)
                0x000286a4                SetDiagState
 .text.ATP_TransHostname2IP
                0x000286b8      0x164 atpconfig/lib.a(atpcommon.o)
                0x000286b8                ATP_TransHostname2IP
 .text.atp_copy_fd_with_timeoutEx
                0x0002881c      0x180 atpconfig/lib.a(atpcommon.o)
                0x0002881c                atp_copy_fd_with_timeoutEx
 .text.atp_copy_fd_with_timeout
                0x0002899c       0x1c atpconfig/lib.a(atpcommon.o)
                0x0002899c                atp_copy_fd_with_timeout
 .text.atp_setup_alarm
                0x000289b8       0x54 atpconfig/lib.a(atpcommon.o)
                0x000289b8                atp_setup_alarm
 .text.transfer_timeout
                0x00028a0c       0x54 atpconfig/lib.a(atpcommon.o)
 .text.xconnect_tr143
                0x00028a60       0x7c atpconfig/lib.a(atpcommon.o)
                0x00028a60                xconnect_tr143
 .text.xbind_connect_tr143
                0x00028adc       0xf0 atpconfig/lib.a(atpcommon.o)
                0x00028adc                xbind_connect_tr143
 .text.xbind_connect
                0x00028bcc       0x5c atpconfig/lib.a(atpcommon.o)
                0x00028bcc                xbind_connect
 .text.ftpcmd   0x00028c28      0x11c atpconfig/lib.a(ftpgetput.o)
 .text.ftp_die  0x00028d44       0x54 atpconfig/lib.a(ftpgetput.o)
 .text.ftpget_main
                0x00028d98      0x6d4 atpconfig/lib.a(ftpgetput.o)
                0x00028d98                ftpget_main
 .text.xconnect_ftpdata
                0x0002946c      0x148 atpconfig/lib.a(ftpgetput.o)
 .text.unlock_file
                0x000295b4       0x48 atpconfig/lib.a(ftpgetput.o)
 .text.ftp_receive
                0x000295fc      0x6d8 atpconfig/lib.a(ftpgetput.o)
 .text.ftp_send
                0x00029cd4      0x3b0 atpconfig/lib.a(ftpgetput.o)
 .text.handy_dns_lookup
                0x0002a084      0x9dc atpconfig/lib.a(gplgethostbyname.o)
 .text.gethostbyname_handy_r
                0x0002aa60      0x22c atpconfig/lib.a(gplgethostbyname.o)
 .text.handy_gethostbyname2_r
                0x0002ac8c      0x2b4 atpconfig/lib.a(gplgethostbyname.o)
                0x0002ac8c                handy_gethostbyname2_r
 .text.ATP_GPL_Gethostbyname
                0x0002af40       0x3c atpconfig/lib.a(gplgethostbyname.o)
                0x0002af40                ATP_GPL_Gethostbyname
 .text.getIfIpAddr
                0x0002af7c      0x13c atpconfig/lib.a(ping.o)
 .text.ping_compensate_time
                0x0002b0b8       0xa8 atpconfig/lib.a(ping.o)
 .text.sendping6
                0x0002b160       0xd4 atpconfig/lib.a(ping.o)
 .text.sendping4
                0x0002b234      0x13c atpconfig/lib.a(ping.o)
 .text.PingToLogWeb
                0x0002b370      0x28c atpconfig/lib.a(ping.o)
 .text.unpack_tail
                0x0002b5fc      0x174 atpconfig/lib.a(ping.o)
 .text.ping6    0x0002b770      0x4b8 atpconfig/lib.a(ping.o)
 .text.ping4    0x0002bc28      0x35c atpconfig/lib.a(ping.o)
 .text.pingstats
                0x0002bf84      0x188 atpconfig/lib.a(ping.o)
 .text.atp_xhost_and_af2sockaddr
                0x0002c10c      0x224 atpconfig/lib.a(ping.o)
                0x0002c10c                atp_xhost_and_af2sockaddr
 .text.ping_main
                0x0002c330      0x368 atpconfig/lib.a(ping.o)
                0x0002c330                ping_main
 .text.ping6_main
                0x0002c698       0x14 atpconfig/lib.a(ping.o)
                0x0002c698                ping6_main
 .text.deltaT   0x0002c6ac       0x6c atpconfig/lib.a(traceroute6.o)
                0x0002c6ac                deltaT
 .text.pr_type  0x0002c718       0x84 atpconfig/lib.a(traceroute6.o)
                0x0002c718                pr_type
 .text.usage    0x0002c79c       0x24 atpconfig/lib.a(traceroute6.o)
                0x0002c79c                usage
 .text.print    0x0002c7c0       0xd0 atpconfig/lib.a(traceroute6.o)
                0x0002c7c0                print
 .text.packet_ok
                0x0002c890      0x174 atpconfig/lib.a(traceroute6.o)
                0x0002c890                packet_ok
 .text.send_probe
                0x0002ca04      0x160 atpconfig/lib.a(traceroute6.o)
                0x0002ca04                send_probe
 .text.wait_for_reply
                0x0002cb64       0xf4 atpconfig/lib.a(traceroute6.o)
                0x0002cb64                wait_for_reply
 .text.TRouteToLogWeb
                0x0002cc58      0x2d8 atpconfig/lib.a(traceroute6.o)
 .text.traceroute6_main
                0x0002cf30      0xb54 atpconfig/lib.a(traceroute6.o)
                0x0002cf30                traceroute6_main
 .text.CvtHex   0x0002da84       0x54 atpconfig/lib.a(wget.o)
 .text.safe_fgets
                0x0002dad8       0x2c atpconfig/lib.a(wget.o)
 .text.open_socket
                0x0002db04      0x1ac atpconfig/lib.a(wget.o)
 .text.build_auth_header
                0x0002dcb0      0xa20 atpconfig/lib.a(wget.o)
 .text.parse_url
                0x0002e6d0      0x1e8 atpconfig/lib.a(wget.o)
 .text.T.113    0x0002e8b8      0x114 atpconfig/lib.a(wget.o)
 .text.T.112    0x0002e9cc      0x138 atpconfig/lib.a(wget.o)
 .text.http_download
                0x0002eb04      0xdc0 atpconfig/lib.a(wget.o)
 .text.wget_main
                0x0002f8c4      0xc5c atpconfig/lib.a(wget.o)
                0x0002f8c4                wget_main
 .text.gnu_dev_major
                0x00030520       0x14 archival/lib.a(tar.o)
 .text.gnu_dev_minor
                0x00030534       0x18 archival/lib.a(tar.o)
 .text.append_file_list_to_list
                0x0003054c       0x84 archival/lib.a(tar.o)
 .text.writeTarFile
                0x000305d0      0x25c archival/lib.a(tar.o)
 .text.tar_main
                0x0003082c      0x380 archival/lib.a(tar.o)
                0x0003082c                tar_main
 .text.putOctal
                0x00030bac       0x58 archival/lib.a(tar.o)
 .text.chksum_and_xwrite
                0x00030c04       0x74 archival/lib.a(tar.o)
 .text.writeLongname
                0x00030c78       0xfc archival/lib.a(tar.o)
 .text.writeTarHeader
                0x00030d74      0x350 archival/lib.a(tar.o)
 .text.writeFileToTarball
                0x000310c4      0x2e0 archival/lib.a(tar.o)
 .text.get_header_tar_Z
                0x000313a4       0x80 archival/lib.a(tar.o)
 .text.data_extract_all
                0x00031424      0x314 archival/libunarchive/lib.a(data_extract_all.o)
                0x00031424                data_extract_all
 .text.data_extract_to_stdout
                0x00031738       0x24 archival/libunarchive/lib.a(data_extract_to_stdout.o)
                0x00031738                data_extract_to_stdout
 .text.data_skip
                0x0003175c       0x20 archival/libunarchive/lib.a(data_skip.o)
                0x0003175c                data_skip
 .text.dealloc_bunzip
                0x0003177c       0x20 archival/libunarchive/lib.a(decompress_bunzip2.o)
                0x0003177c                dealloc_bunzip
 .text.get_bits
                0x0003179c       0xd8 archival/libunarchive/lib.a(decompress_bunzip2.o)
 .text.start_bunzip
                0x00031874       0xec archival/libunarchive/lib.a(decompress_bunzip2.o)
                0x00031874                start_bunzip
 .text.get_next_block
                0x00031960      0x8e8 archival/libunarchive/lib.a(decompress_bunzip2.o)
 .text.read_bunzip
                0x00032248      0x180 archival/libunarchive/lib.a(decompress_bunzip2.o)
                0x00032248                read_bunzip
 .text.unpack_bz2_stream
                0x000323c8       0xe0 archival/libunarchive/lib.a(decompress_bunzip2.o)
                0x000323c8                unpack_bz2_stream
 .text.uncompress
                0x000324a8      0x4b0 archival/libunarchive/lib.a(decompress_uncompress.o)
                0x000324a8                uncompress
 .text.filter_accept_reject_list
                0x00032958       0x54 archival/libunarchive/lib.a(filter_accept_reject_list.o)
                0x00032958                filter_accept_reject_list
 .text.find_list_entry2
                0x000329ac       0xb8 archival/libunarchive/lib.a(find_list_entry.o)
                0x000329ac                find_list_entry2
 .text.find_list_entry
                0x00032a64       0x40 archival/libunarchive/lib.a(find_list_entry.o)
                0x00032a64                find_list_entry
 .text.getOctal
                0x00032aa4       0x50 archival/libunarchive/lib.a(get_header_tar.o)
 .text.get_header_tar
                0x00032af4      0x608 archival/libunarchive/lib.a(get_header_tar.o)
                0x00032af4                get_header_tar
 .text.get_header_tar_bz2
                0x000330fc       0x54 archival/libunarchive/lib.a(get_header_tar_bz2.o)
                0x000330fc                get_header_tar_bz2
 .text.get_header_tar_gz
                0x00033150       0x88 archival/libunarchive/lib.a(get_header_tar_gz.o)
                0x00033150                get_header_tar_gz
 .text.header_list
                0x000331d8       0x14 archival/libunarchive/lib.a(header_list.o)
                0x000331d8                header_list
 .text.header_verbose_list
                0x000331ec       0xb0 archival/libunarchive/lib.a(header_verbose_list.o)
                0x000331ec                header_verbose_list
 .text.init_handle
                0x0003329c       0x58 archival/libunarchive/lib.a(init_handle.o)
                0x0003329c                init_handle
 .text.open_transformer
                0x000332f4       0x68 archival/libunarchive/lib.a(open_transformer.o)
                0x000332f4                open_transformer
 .text.seek_by_jump
                0x0003335c       0x3c archival/libunarchive/lib.a(seek_by_jump.o)
                0x0003335c                seek_by_jump
 .text.seek_by_read
                0x00033398       0x20 archival/libunarchive/lib.a(seek_by_read.o)
                0x00033398                seek_by_read
 .text.data_align
                0x000333b8       0x7c archival/libunarchive/lib.a(data_align.o)
                0x000333b8                data_align
 .text.inflate_codes_setup
                0x00033434       0x4c archival/libunarchive/lib.a(decompress_unzip.o)
 .text.calculate_gunzip_crc
                0x00033480       0x58 archival/libunarchive/lib.a(decompress_unzip.o)
 .text.huft_free
                0x000334d8       0x28 archival/libunarchive/lib.a(decompress_unzip.o)
 .text.huft_free_all
                0x00033500       0x2c archival/libunarchive/lib.a(decompress_unzip.o)
 .text.buffer_read_le_u32
                0x0003352c       0x38 archival/libunarchive/lib.a(decompress_unzip.o)
 .text.huft_build
                0x00033564      0x5ac archival/libunarchive/lib.a(decompress_unzip.o)
 .text.abort_unzip
                0x00033b10       0x14 archival/libunarchive/lib.a(decompress_unzip.o)
 .text.fill_bitbuffer
                0x00033b24       0xac archival/libunarchive/lib.a(decompress_unzip.o)
 .text.inflate_block
                0x00033bd0      0x618 archival/libunarchive/lib.a(decompress_unzip.o)
 .text.inflate_unzip_internal
                0x000341e8      0x5b4 archival/libunarchive/lib.a(decompress_unzip.o)
 .text.top_up   0x0003479c       0x90 archival/libunarchive/lib.a(decompress_unzip.o)
 .text.unpack_gz_stream
                0x0003482c      0x280 archival/libunarchive/lib.a(decompress_unzip.o)
                0x0003482c                unpack_gz_stream
 .text.filter_accept_all
                0x00034aac       0x14 archival/libunarchive/lib.a(filter_accept_all.o)
                0x00034aac                filter_accept_all
 .text.header_skip
                0x00034ac0        0x4 archival/libunarchive/lib.a(header_skip.o)
                0x00034ac0                header_skip
 .text.setconsole_main
                0x00034ac4       0xa8 console-tools/lib.a(setconsole.o)
                0x00034ac4                setconsole_main
 .text.bb_cat   0x00034b6c       0x8c coreutils/lib.a(cat.o)
                0x00034b6c                bb_cat
 .text.cat_main
                0x00034bf8       0x30 coreutils/lib.a(cat.o)
                0x00034bf8                cat_main
 .text.chmod_main
                0x00034c28       0xec coreutils/lib.a(chmod.o)
                0x00034c28                chmod_main
 .text.fileAction
                0x00034d14       0x90 coreutils/lib.a(chmod.o)
 .text.cp_main  0x00034da4      0x13c coreutils/lib.a(cp.o)
                0x00034da4                cp_main
 .text.maybe_set_utc
                0x00034ee0       0x1c coreutils/lib.a(date.o)
 .text.date_main
                0x00034efc      0x4d8 coreutils/lib.a(date.o)
                0x00034efc                date_main
 .text.echo_main
                0x000353d4      0x1f0 coreutils/lib.a(echo.o)
                0x000353d4                echo_main
 .text.count_dirs
                0x000355c4       0x80 coreutils/lib.a(ls.o)
 .text.my_stat  0x00035644       0xbc coreutils/lib.a(ls.o)
 .text.dnalloc  0x00035700       0x1c coreutils/lib.a(ls.o)
 .text.splitdnarray
                0x0003571c       0xdc coreutils/lib.a(ls.o)
 .text.showfiles
                0x000357f8      0x494 coreutils/lib.a(ls.o)
 .text.ls_main  0x00035c8c      0x3c4 coreutils/lib.a(ls.o)
                0x00035c8c                ls_main
 .text.mkdir_main
                0x00036050       0xb4 coreutils/lib.a(mkdir.o)
                0x00036050                mkdir_main
 .text.mknod_main
                0x00036104       0xf0 coreutils/lib.a(mknod.o)
                0x00036104                mknod_main
 .text.mv_main  0x000361f4      0x23c coreutils/lib.a(mv.o)
                0x000361f4                mv_main
 .text.rm_main  0x00036430       0xe4 coreutils/lib.a(rm.o)
                0x00036430                rm_main
 .text.sleep_main
                0x00036514       0x28 coreutils/lib.a(sleep.o)
                0x00036514                sleep_main
 .text.t_lex    0x0003653c       0x68 coreutils/lib.a(test.o)
 .text.syntax   0x000365a4       0x54 coreutils/lib.a(test.o)
 .text.getn     0x000365f8       0x74 coreutils/lib.a(test.o)
 .text.binop    0x0003666c      0x23c coreutils/lib.a(test.o)
 .text.nexpr    0x000368a8      0x3cc coreutils/lib.a(test.o)
 .text.aexpr    0x00036c74       0x74 coreutils/lib.a(test.o)
 .text.oexpr    0x00036ce8       0x74 coreutils/lib.a(test.o)
 .text.test_main
                0x00036d5c      0x214 coreutils/lib.a(test.o)
                0x00036d5c                test_main
 .text.usleep_main
                0x00036f70       0x28 coreutils/lib.a(usleep.o)
                0x00036f70                usleep_main
 .text.cp_mv_stat2
                0x00036f98       0x6c coreutils/libcoreutils/lib.a(cp_mv_stat.o)
                0x00036f98                cp_mv_stat2
 .text.cp_mv_stat
                0x00037004        0xc coreutils/libcoreutils/lib.a(cp_mv_stat.o)
                0x00037004                cp_mv_stat
 .text.getopt_mk_fifo_nod
                0x00037010       0x5c coreutils/libcoreutils/lib.a(getopt_mk_fifo_nod.o)
                0x00037010                getopt_mk_fifo_nod
 .text.check    0x0003706c      0x190 debianutils/lib.a(start_stop_daemon.o)
 .text.do_procinit
                0x000371fc       0xec debianutils/lib.a(start_stop_daemon.o)
 .text.start_stop_daemon_main
                0x000372e8      0x3c8 debianutils/lib.a(start_stop_daemon.o)
                0x000372e8                start_stop_daemon_main
 .text.hashidx  0x000376b0       0x30 editors/lib.a(awk.o)
 .text.skip_spaces
                0x000376e0       0x60 editors/lib.a(awk.o)
 .text.nextword
                0x00037740       0x20 editors/lib.a(awk.o)
 .text.rollback_token
                0x00037760       0x18 editors/lib.a(awk.o)
 .text.nextarg  0x00037778       0x38 editors/lib.a(awk.o)
 .text.hash_init
                0x000377b0       0x30 editors/lib.a(awk.o)
 .text.iamarray
                0x000377e0       0x40 editors/lib.a(awk.o)
 .text.new_node
                0x00037820       0x30 editors/lib.a(awk.o)
 .text.nvalloc  0x00037850      0x108 editors/lib.a(awk.o)
 .text.qrealloc
                0x00037958       0x3c editors/lib.a(awk.o)
 .text.clrvar   0x00037994       0x44 editors/lib.a(awk.o)
 .text.fsrealloc
                0x000379d8       0xd0 editors/lib.a(awk.o)
 .text.clear_array
                0x00037aa8       0x6c editors/lib.a(awk.o)
 .text.zero_out_var
                0x00037b14       0x18 editors/lib.a(awk.o)
 .text.chain_node
                0x00037b2c       0x9c editors/lib.a(awk.o)
 .text.mk_re_node
                0x00037bc8       0x4c editors/lib.a(awk.o)
 .text.mk_splitter
                0x00037c14       0x60 editors/lib.a(awk.o)
 .text.getvar_i
                0x00037c74       0xb0 editors/lib.a(awk.o)
 .text.is_numeric
                0x00037d24       0x28 editors/lib.a(awk.o)
 .text.istrue   0x00037d4c       0x60 editors/lib.a(awk.o)
 .text.hash_search
                0x00037dac       0x54 editors/lib.a(awk.o)
 .text.hash_find
                0x00037e00      0x124 editors/lib.a(awk.o)
 .text.hash_remove
                0x00037f24       0x8c editors/lib.a(awk.o)
 .text.nextchar
                0x00037fb0       0x48 editors/lib.a(awk.o)
 .text.syntax_error
                0x00037ff8       0x24 editors/lib.a(awk.o)
 .text.fmt_num  0x0003801c      0x10c editors/lib.a(awk.o)
 .text.getvar_s
                0x00038128       0x94 editors/lib.a(awk.o)
 .text.handle_special
                0x000381bc      0x1c8 editors/lib.a(awk.o)
 .text.setvar_p
                0x00038384       0x28 editors/lib.a(awk.o)
 .text.setvar_s
                0x000383ac       0x3c editors/lib.a(awk.o)
 .text.setvar_u
                0x000383e8       0x24 editors/lib.a(awk.o)
 .text.is_assignment
                0x0003840c       0xd4 editors/lib.a(awk.o)
 .text.setari_u
                0x000384e0       0x44 editors/lib.a(awk.o)
 .text.setvar_i
                0x00038524       0x3c editors/lib.a(awk.o)
 .text.incvar   0x00038560       0x30 editors/lib.a(awk.o)
 .text.awk_getline
                0x00038590      0x2d8 editors/lib.a(awk.o)
 .text.copyvar  0x00038868       0x68 editors/lib.a(awk.o)
 .text.awk_split
                0x000388d0      0x2a8 editors/lib.a(awk.o)
 .text.split_f0
                0x00038b78       0xd8 editors/lib.a(awk.o)
 .text.next_token
                0x00038c50      0x4c8 editors/lib.a(awk.o)
 .text.parse_expr
                0x00039118      0x330 editors/lib.a(awk.o)
 .text.condition
                0x00039448       0x18 editors/lib.a(awk.o)
 .text.chain_expr
                0x00039460       0x40 editors/lib.a(awk.o)
 .text.chain_group
                0x000394a0      0x2c8 editors/lib.a(awk.o)
 .text.parse_program
                0x00039768      0x174 editors/lib.a(awk.o)
 .text.chain_loop
                0x000398dc       0x90 editors/lib.a(awk.o)
 .text.nvfree   0x0003996c       0xe8 editors/lib.a(awk.o)
 .text.T.252    0x00039a54       0x3c editors/lib.a(awk.o)
 .text.next_input_file
                0x00039a90      0x12c editors/lib.a(awk.o)
 .text.evaluate
                0x00039bbc     0x173c editors/lib.a(awk.o)
 .text.awk_exit
                0x0003b2f8       0xa0 editors/lib.a(awk.o)
 .text.as_regex
                0x0003b398       0x8c editors/lib.a(awk.o)
 .text.awk_sub  0x0003b424      0x284 editors/lib.a(awk.o)
 .text.awk_printf
                0x0003b6a8      0x20c editors/lib.a(awk.o)
 .text.ptest    0x0003b8b4       0x20 editors/lib.a(awk.o)
 .text.awk_main
                0x0003b8d4      0x500 editors/lib.a(awk.o)
                0x0003b8d4                awk_main
 .text.isqrt    0x0003bdd4       0x4c editors/lib.a(diff.o)
 .text.sort     0x0003be20       0xe8 editors/lib.a(diff.o)
 .text.asciifile
                0x0003bf08        0x8 editors/lib.a(diff.o)
 .text.newcand  0x0003bf10       0x8c editors/lib.a(diff.o)
 .text.prepare  0x0003bf9c      0x1d8 editors/lib.a(diff.o)
 .text.skipline
                0x0003c174       0x68 editors/lib.a(diff.o)
 .text.uni_range
                0x0003c1dc       0x44 editors/lib.a(diff.o)
 .text.fetch    0x0003c220      0x214 editors/lib.a(diff.o)
 .text.dump_unified_vec
                0x0003c434      0x1d4 editors/lib.a(diff.o)
 .text.change   0x0003c608      0x1bc editors/lib.a(diff.o)
 .text.diff_main
                0x0003c7c4     0x1328 editors/lib.a(diff.o)
                0x0003c7c4                diff_main
 .text.parse_escapes
                0x0003daec       0x74 editors/lib.a(sed.o)
 .text.index_of_next_unescaped_regexp_delim
                0x0003db60       0xbc editors/lib.a(sed.o)
 .text.copy_parsing_escapes
                0x0003dc1c       0x60 editors/lib.a(sed.o)
 .text.parse_regex_delim
                0x0003dc7c       0x80 editors/lib.a(sed.o)
 .text.get_address
                0x0003dcfc       0xf0 editors/lib.a(sed.o)
 .text.parse_file_cmd
                0x0003ddec       0x94 editors/lib.a(sed.o)
 .text.add_cmd  0x0003de80      0x5b0 editors/lib.a(sed.o)
 .text.add_cmd_block
                0x0003e430       0x90 editors/lib.a(sed.o)
 .text.add_input_file
                0x0003e4c0       0x40 editors/lib.a(sed.o)
 .text.pipe_putc
                0x0003e500       0x58 editors/lib.a(sed.o)
 .text.append   0x0003e558       0x20 editors/lib.a(sed.o)
 .text.puts_maybe_newline
                0x0003e578      0x14c editors/lib.a(sed.o)
 .text.flush_append
                0x0003e6c4       0x48 editors/lib.a(sed.o)
 .text.get_next_line
                0x0003e70c       0xfc editors/lib.a(sed.o)
 .text.process_files
                0x0003e808      0xa50 editors/lib.a(sed.o)
 .text.sed_main
                0x0003f258      0x2fc editors/lib.a(sed.o)
                0x0003f258                sed_main
 .text.cleanup_outname
                0x0003f554       0x20 editors/lib.a(sed.o)
 .text.add_grep_list_data
                0x0003f574       0x1c findutils/lib.a(grep.o)
 .text.T.24     0x0003f590       0x80 findutils/lib.a(grep.o)
 .text.grep_file
                0x0003f610      0x21c findutils/lib.a(grep.o)
 .text.grep_main
                0x0003f82c      0x2f0 findutils/lib.a(grep.o)
                0x0003f82c                grep_main
 .text.file_action_grep
                0x0003fb1c       0x80 findutils/lib.a(grep.o)
 .text.halt_main
                0x0003fb9c      0x190 init/lib.a(halt.o)
                0x0003fb9c                halt_main
 .text.cont_handler
                0x0003fd2c       0x14 init/lib.a(init.o)
 .text.loop_forever
                0x0003fd40       0x10 init/lib.a(init.o)
 .text.init_reboot
                0x0003fd50       0x38 init/lib.a(init.o)
 .text.set_sane_term
                0x0003fd88       0xb0 init/lib.a(init.o)
 .text.new_init_action
                0x0003fe38       0xc0 init/lib.a(init.o)
 .text.delete_init_action
                0x0003fef8       0x50 init/lib.a(init.o)
 .text.message  0x0003ff48      0x114 init/lib.a(init.o)
 .text.parse_inittab
                0x0004005c      0x290 init/lib.a(init.o)
 .text.stop_handler
                0x000402ec       0x48 init/lib.a(init.o)
 .text.shutdown_system
                0x00040334      0x120 init/lib.a(init.o)
 .text.shutdown_signal
                0x00040454       0x78 init/lib.a(init.o)
 .text.open_stdio_to_tty
                0x000404cc       0xa0 init/lib.a(init.o)
 .text.run      0x0004056c      0x284 init/lib.a(init.o)
 .text.run_actions
                0x000407f0       0xdc init/lib.a(init.o)
 .text.init_main
                0x000408cc      0x3dc init/lib.a(init.o)
                0x000408cc                init_main
 .text.reload_signal
                0x00040ca8       0x78 init/lib.a(init.o)
 .text.ctrlaltdel_signal
                0x00040d20        0x8 init/lib.a(init.o)
 .text.exec_signal
                0x00040d28      0x14c init/lib.a(init.o)
 .text.bb_ask_confirmation
                0x00040e74       0xa0 libbb/lib.a(ask_confirmation.o)
                0x00040e74                bb_ask_confirmation
 .text.get_ug_id
                0x00040f14       0x40 libbb/lib.a(bb_pwd.o)
                0x00040f14                get_ug_id
 .text.xuname2uid
                0x00040f54       0x2c libbb/lib.a(bb_pwd.o)
                0x00040f54                xuname2uid
 .text.xgroup2gid
                0x00040f80       0x2c libbb/lib.a(bb_pwd.o)
                0x00040f80                xgroup2gid
 .text.bb_getug
                0x00040fac       0x74 libbb/lib.a(bb_pwd.o)
 .text.bb_getgrgid
                0x00041020       0x40 libbb/lib.a(bb_pwd.o)
                0x00041020                bb_getgrgid
 .text.bb_getpwuid
                0x00041060       0x40 libbb/lib.a(bb_pwd.o)
                0x00041060                bb_getpwuid
 .text.ret_ERANGE
                0x000410a0       0x20 libbb/lib.a(bb_strtonum.o)
 .text.handle_errors
                0x000410c0       0x70 libbb/lib.a(bb_strtonum.o)
 .text.bb_strtol
                0x00041130       0x6c libbb/lib.a(bb_strtonum.o)
                0x00041130                bb_strtol
 .text.bb_strtoul
                0x0004119c       0x64 libbb/lib.a(bb_strtonum.o)
                0x0004119c                bb_strtoul
 .text.bb_strtoull
                0x00041200       0x60 libbb/lib.a(bb_strtonum.o)
                0x00041200                bb_strtoull
 .text.change_identity_e2str
                0x00041260       0x44 libbb/lib.a(change_identity.o)
                0x00041260                change_identity_e2str
 .text.change_identity
                0x000412a4       0x18 libbb/lib.a(change_identity.o)
                0x000412a4                change_identity
 .text.index_in_strings
                0x000412bc       0x58 libbb/lib.a(compare_string_array.o)
                0x000412bc                index_in_strings
 .text.ask_and_unlink
                0x00041314       0x74 libbb/lib.a(copy_file.o)
 .text.copy_file
                0x00041388      0x5d4 libbb/lib.a(copy_file.o)
                0x00041388                copy_file
 .text.correct_password
                0x0004195c       0xe4 libbb/lib.a(correct_password.o)
                0x0004195c                correct_password
 .text.crc32_filltable
                0x00041a40       0x88 libbb/lib.a(crc32.o)
                0x00041a40                crc32_filltable
 .text.create_icmp6_socket
                0x00041ac8       0x70 libbb/lib.a(create_icmp6_socket.o)
                0x00041ac8                create_icmp6_socket
 .text.create_icmp_socket
                0x00041b38       0x70 libbb/lib.a(create_icmp_socket.o)
                0x00041b38                create_icmp_socket
 .text.device_open
                0x00041ba8       0x60 libbb/lib.a(device_open.o)
                0x00041ba8                device_open
 .text.bb_execvp
                0x00041c08       0x34 libbb/lib.a(execable.o)
                0x00041c08                bb_execvp
 .text.fclose_if_not_stdin
                0x00041c3c       0x24 libbb/lib.a(fclose_nonstdin.o)
                0x00041c3c                fclose_if_not_stdin
 .text.fflush_stdout_and_exit
                0x00041c60       0x4c libbb/lib.a(fflush_stdout_and_exit.o)
                0x00041c60                fflush_stdout_and_exit
 .text.find_pid_by_name
                0x00041cac       0xa4 libbb/lib.a(find_pid_by_name.o)
                0x00041cac                find_pid_by_name
 .text.bb_get_chunk_from_file
                0x00041d50       0xdc libbb/lib.a(get_line_from_file.o)
                0x00041d50                bb_get_chunk_from_file
 .text.xmalloc_getline
                0x00041e2c       0x38 libbb/lib.a(get_line_from_file.o)
                0x00041e2c                xmalloc_getline
 .text.xmalloc_fgets
                0x00041e64       0x14 libbb/lib.a(get_line_from_file.o)
                0x00041e64                xmalloc_fgets
 .text.getopt32
                0x00041e78      0x5f8 libbb/lib.a(getopt32.o)
                0x00041e78                getopt32
 .text.bb_herror_msg_and_die
                0x00042470       0x30 libbb/lib.a(herror_msg_and_die.o)
                0x00042470                bb_herror_msg_and_die
 .text.INET6_rresolve
                0x000424a0       0xfc libbb/lib.a(inet_common.o)
                0x000424a0                INET6_rresolve
 .text.INET6_resolve
                0x0004259c       0x90 libbb/lib.a(inet_common.o)
                0x0004259c                INET6_resolve
 .text.INET_rresolve
                0x0004262c      0x160 libbb/lib.a(inet_common.o)
                0x0004262c                INET_rresolve
 .text.INET_resolve
                0x0004278c       0xc4 libbb/lib.a(inet_common.o)
                0x0004278c                INET_resolve
 .text.bb_info_msg
                0x00042850       0x78 libbb/lib.a(info_msg.o)
                0x00042850                bb_info_msg
 .text.is_in_ino_dev_hashtable
                0x000428c8       0x98 libbb/lib.a(inode_hash.o)
                0x000428c8                is_in_ino_dev_hashtable
 .text.add_to_ino_dev_hashtable
                0x00042960       0xb4 libbb/lib.a(inode_hash.o)
                0x00042960                add_to_ino_dev_hashtable
 .text.new_line_input_t
                0x00042a14       0x1c libbb/lib.a(lineedit.o)
                0x00042a14                new_line_input_t
 .text.put_prompt
                0x00042a30       0x44 libbb/lib.a(lineedit.o)
 .text.parse_and_put_prompt
                0x00042a74       0x24 libbb/lib.a(lineedit.o)
 .text.beep     0x00042a98       0x14 libbb/lib.a(lineedit.o)
 .text.cmdedit_set_out_char
                0x00042aac       0x7c libbb/lib.a(lineedit.o)
 .text.input_end
                0x00042b28       0x34 libbb/lib.a(lineedit.o)
 .text.goto_new_line
                0x00042b5c       0x2c libbb/lib.a(lineedit.o)
 .text.match_compare
                0x00042b88       0x18 libbb/lib.a(lineedit.o)
 .text.free_tab_completion_data
                0x00042ba0       0x54 libbb/lib.a(lineedit.o)
 .text.deinit_S
                0x00042bf4       0x1c libbb/lib.a(lineedit.o)
 .text.get_previous_history
                0x00042c10       0x7c libbb/lib.a(lineedit.o)
 .text.get_next_history
                0x00042c8c       0x5c libbb/lib.a(lineedit.o)
 .text.add_quote_for_spec_chars
                0x00042ce8       0x70 libbb/lib.a(lineedit.o)
 .text.input_backward
                0x00042d58       0xb4 libbb/lib.a(lineedit.o)
 .text.input_delete
                0x00042e0c       0x64 libbb/lib.a(lineedit.o)
 .text.input_backspace
                0x00042e70       0x38 libbb/lib.a(lineedit.o)
 .text.redraw   0x00042ea8       0x44 libbb/lib.a(lineedit.o)
 .text.input_tab
                0x00042eec      0xd74 libbb/lib.a(lineedit.o)
 .text.win_changed
                0x00043c60       0x88 libbb/lib.a(lineedit.o)
 .text.read_line_input
                0x00043ce8      0x5b4 libbb/lib.a(lineedit.o)
                0x00043ce8                read_line_input
 .text.llist_pop
                0x0004429c       0x38 libbb/lib.a(llist.o)
                0x0004429c                llist_pop
 .text.llist_add_to_end
                0x000442d4       0x4c libbb/lib.a(llist.o)
                0x000442d4                llist_add_to_end
 .text.llist_add_to
                0x00044320       0x2c libbb/lib.a(llist.o)
                0x00044320                llist_add_to
 .text.bb_make_directory
                0x0004434c      0x16c libbb/lib.a(make_directory.o)
                0x0004434c                bb_make_directory
 .text.bb_makedev
                0x000444b8       0x5c libbb/lib.a(makedev.o)
                0x000444b8                bb_makedev
 .text.match_fstype
                0x00044514       0xb0 libbb/lib.a(match_fstype.o)
                0x00044514                match_fstype
 .text.bb_mode_string
                0x000445c4       0xb0 libbb/lib.a(mode_string.o)
                0x000445c4                bb_mode_string
 .text.bb_parse_mode
                0x00044674      0x238 libbb/lib.a(parse_mode.o)
                0x00044674                bb_parse_mode
 .text.bb_perror_nomsg_and_die
                0x000448ac       0x14 libbb/lib.a(perror_nomsg_and_die.o)
                0x000448ac                bb_perror_nomsg_and_die
 .text.write_pidfile
                0x000448c0       0xac libbb/lib.a(pidfile.o)
                0x000448c0                write_pidfile
 .text.bb_process_escape_sequence
                0x0004496c       0xc8 libbb/lib.a(process_escape_sequence.o)
                0x0004496c                bb_process_escape_sequence
 .text.fast_strtoul_10
                0x00044a34       0x38 libbb/lib.a(procps.o)
 .text.skip_fields
                0x00044a6c       0x18 libbb/lib.a(procps.o)
 .text.read_cmdline
                0x00044a84       0x94 libbb/lib.a(procps.o)
                0x00044a84                read_cmdline
 .text.clear_cache
                0x00044b18       0x24 libbb/lib.a(procps.o)
 .text.clear_username_cache
                0x00044b3c       0x20 libbb/lib.a(procps.o)
                0x00044b3c                clear_username_cache
 .text.read_to_buf
                0x00044b5c       0x50 libbb/lib.a(procps.o)
 .text.free_procps_scan
                0x00044bac       0x28 libbb/lib.a(procps.o)
                0x00044bac                free_procps_scan
 .text.alloc_procps_scan
                0x00044bd4       0x50 libbb/lib.a(procps.o)
                0x00044bd4                alloc_procps_scan
 .text.procps_scan
                0x00044c24      0x2e8 libbb/lib.a(procps.o)
                0x00044c24                procps_scan
 .text.get_cached
                0x00044f0c       0x90 libbb/lib.a(procps.o)
 .text.get_cached_groupname
                0x00044f9c       0x18 libbb/lib.a(procps.o)
                0x00044f9c                get_cached_groupname
 .text.get_cached_username
                0x00044fb4       0x18 libbb/lib.a(procps.o)
                0x00044fb4                get_cached_username
 .text.true_action
                0x00044fcc        0x8 libbb/lib.a(recursive_action.o)
 .text.recursive_action
                0x00044fd4      0x1d0 libbb/lib.a(recursive_action.o)
                0x00044fd4                recursive_action
 .text.remove_file
                0x000451a4      0x244 libbb/lib.a(remove_file.o)
                0x000451a4                remove_file
 .text.run_shell
                0x000453e8       0xe0 libbb/lib.a(run_shell.o)
                0x000453e8                run_shell
 .text.safe_poll
                0x000454c8       0x68 libbb/lib.a(safe_poll.o)
                0x000454c8                safe_poll
 .text.safe_strncpy
                0x00045530       0x30 libbb/lib.a(safe_strncpy.o)
                0x00045530                safe_strncpy
 .text.setup_environment
                0x00045560       0xf8 libbb/lib.a(setup_environment.o)
                0x00045560                setup_environment
 .text.bb_simplify_path
                0x00045658       0xfc libbb/lib.a(simplify_path.o)
                0x00045658                bb_simplify_path
 .text.skip_non_whitespace
                0x00045754       0x34 libbb/lib.a(skip_whitespace.o)
                0x00045754                skip_non_whitespace
 .text.skip_whitespace
                0x00045788       0x2c libbb/lib.a(skip_whitespace.o)
                0x00045788                skip_whitespace
 .text.str_tolower
                0x000457b4       0x34 libbb/lib.a(str_tolower.o)
                0x000457b4                str_tolower
 .text.monotonic_sec
                0x000457e8       0x14 libbb/lib.a(time.o)
                0x000457e8                monotonic_sec
 .text.monotonic_us
                0x000457fc       0x34 libbb/lib.a(time.o)
                0x000457fc                monotonic_us
 .text.trim     0x00045830       0x78 libbb/lib.a(trim.o)
                0x00045830                trim
 .text.print_signames
                0x000458a8       0x38 libbb/lib.a(u_signal_names.o)
                0x000458a8                print_signames
 .text.get_signame
                0x000458e0       0x3c libbb/lib.a(u_signal_names.o)
                0x000458e0                get_signame
 .text.get_signum
                0x0004591c       0x8c libbb/lib.a(u_signal_names.o)
                0x0004591c                get_signum
 .text.bb_daemonize_or_rexec
                0x000459a8       0x40 libbb/lib.a(vfork_daemon_rexec.o)
                0x000459a8                bb_daemonize_or_rexec
 .text.bb_sanitize_stdio
                0x000459e8        0x8 libbb/lib.a(vfork_daemon_rexec.o)
                0x000459e8                bb_sanitize_stdio
 .text.wait4pid
                0x000459f0       0x5c libbb/lib.a(vfork_daemon_rexec.o)
                0x000459f0                wait4pid
 .text.spawn    0x00045a4c       0x70 libbb/lib.a(vfork_daemon_rexec.o)
                0x00045a4c                spawn
 .text.fopen_or_warn
                0x00045abc       0x38 libbb/lib.a(wfopen.o)
                0x00045abc                fopen_or_warn
 .text.xstrtoul_range_sfx
                0x00045af4      0x130 libbb/lib.a(xatonum.o)
                0x00045af4                xstrtoul_range_sfx
 .text.xstrtol_range_sfx
                0x00045c24       0x9c libbb/lib.a(xatonum.o)
                0x00045c24                xstrtol_range_sfx
 .text.xatol_range
                0x00045cc0       0x24 libbb/lib.a(xatonum.o)
                0x00045cc0                xatol_range
 .text.xstrtol_range
                0x00045ce4       0x18 libbb/lib.a(xatonum.o)
                0x00045ce4                xstrtol_range
 .text.xatoul_sfx
                0x00045cfc       0x20 libbb/lib.a(xatonum.o)
                0x00045cfc                xatoul_sfx
 .text.xatoul   0x00045d1c        0x8 libbb/lib.a(xatonum.o)
                0x00045d1c                xatoul
 .text.xatoul_range
                0x00045d24       0x24 libbb/lib.a(xatonum.o)
                0x00045d24                xatoul_range
 .text.xatou16  0x00045d48       0x24 libbb/lib.a(xatonum.o)
                0x00045d48                xatou16
 .text.xatoi_u  0x00045d6c        0xc libbb/lib.a(xatonum.o)
                0x00045d6c                xatoi_u
 .text.set_nport
                0x00045d78       0x1c libbb/lib.a(xconnect.o)
                0x00045d78                set_nport
 .text.sockaddr2str
                0x00045d94       0xb8 libbb/lib.a(xconnect.o)
 .text.xmalloc_sockaddr2dotted_noport
                0x00045e4c        0x8 libbb/lib.a(xconnect.o)
                0x00045e4c                xmalloc_sockaddr2dotted_noport
 .text.xmalloc_sockaddr2dotted
                0x00045e54        0x8 libbb/lib.a(xconnect.o)
                0x00045e54                xmalloc_sockaddr2dotted
 .text.xmalloc_sockaddr2host_noport
                0x00045e5c        0x8 libbb/lib.a(xconnect.o)
                0x00045e5c                xmalloc_sockaddr2host_noport
 .text.xsocket_type
                0x00045e64       0x78 libbb/lib.a(xconnect.o)
                0x00045e64                xsocket_type
 .text.str2sockaddr
                0x00045edc      0x194 libbb/lib.a(xconnect.o)
 .text.xdotted2sockaddr
                0x00046070        0xc libbb/lib.a(xconnect.o)
                0x00046070                xdotted2sockaddr
 .text.xhost2sockaddr
                0x0004607c        0xc libbb/lib.a(xconnect.o)
                0x0004607c                xhost2sockaddr
 .text.host_and_af2sockaddr
                0x00046088        0x8 libbb/lib.a(xconnect.o)
                0x00046088                host_and_af2sockaddr
 .text.bb_lookup_port
                0x00046090       0x8c libbb/lib.a(xconnect.o)
                0x00046090                bb_lookup_port
 .text.xconnect
                0x0004611c       0x50 libbb/lib.a(xconnect.o)
                0x0004611c                xconnect
 .text.xconnect_stream
                0x0004616c       0x38 libbb/lib.a(xconnect.o)
                0x0004616c                xconnect_stream
 .text.setsockopt_broadcast
                0x000461a4       0x28 libbb/lib.a(xconnect.o)
                0x000461a4                setsockopt_broadcast
 .text.setsockopt_reuseaddr
                0x000461cc       0x28 libbb/lib.a(xconnect.o)
                0x000461cc                setsockopt_reuseaddr
 .text.create_and_bind_or_die
                0x000461f4       0xe0 libbb/lib.a(xconnect.o)
 .text.create_and_bind_stream_or_die
                0x000462d4        0x8 libbb/lib.a(xconnect.o)
                0x000462d4                create_and_bind_stream_or_die
 .text.xrealloc_getcwd_or_warn
                0x000462dc       0x80 libbb/lib.a(xgetcwd.o)
                0x000462dc                xrealloc_getcwd_or_warn
 .text.regcomp_or_errmsg
                0x0004635c       0x54 libbb/lib.a(xregcomp.o)
                0x0004635c                regcomp_or_errmsg
 .text.xregcomp
                0x000463b0       0x20 libbb/lib.a(xregcomp.o)
                0x000463b0                xregcomp
 .text.askpass_timeout
                0x000463d0        0x4 libbb/lib.a(bb_askpass.o)
 .text.bb_askpass
                0x000463d4      0x1b4 libbb/lib.a(bb_askpass.o)
                0x000463d4                bb_askpass
 .text.concat_subpath_file
                0x00046588       0x4c libbb/lib.a(concat_subpath_file.o)
                0x00046588                concat_subpath_file
 .text.get_uidgid
                0x000465d4      0x128 libpwdgrp/lib.a(uidgid_get.o)
                0x000465d4                get_uidgid
 .text.parse_chown_usergroup_or_die
                0x000466fc       0xc0 libpwdgrp/lib.a(uidgid_get.o)
                0x000466fc                parse_chown_usergroup_or_die
 .text          0x000467bc      0x114 /opt/toolchain_hisi_ipsec/arm-hsan-linux-uclibcgnueabi/bin/../lib/gcc/arm-hsan-linux-uclibcgnueabi/4.4.6/libgcc.a(_udivsi3.o)
                0x000467bc                __udivsi3
                0x000467bc                __aeabi_uidiv
                0x000468b8                __aeabi_uidivmod
 .text          0x000468d0      0x144 /opt/toolchain_hisi_ipsec/arm-hsan-linux-uclibcgnueabi/bin/../lib/gcc/arm-hsan-linux-uclibcgnueabi/4.4.6/libgcc.a(_divsi3.o)
                0x000468d0                __divsi3
                0x000468d0                __aeabi_idiv
                0x000469fc                __aeabi_idivmod
 .text          0x00046a14       0x1c /opt/toolchain_hisi_ipsec/arm-hsan-linux-uclibcgnueabi/bin/../lib/gcc/arm-hsan-linux-uclibcgnueabi/4.4.6/libgcc.a(_lshrdi3.o)
                0x00046a14                __aeabi_llsr
                0x00046a14                __lshrdi3
 .text          0x00046a30       0x1c /opt/toolchain_hisi_ipsec/arm-hsan-linux-uclibcgnueabi/bin/../lib/gcc/arm-hsan-linux-uclibcgnueabi/4.4.6/libgcc.a(_ashldi3.o)
                0x00046a30                __ashldi3
                0x00046a30                __aeabi_llsl
 .text          0x00046a4c      0x41c /opt/toolchain_hisi_ipsec/arm-hsan-linux-uclibcgnueabi/bin/../lib/gcc/arm-hsan-linux-uclibcgnueabi/4.4.6/libgcc.a(_arm_addsubdf3.o)
                0x00046a4c                __aeabi_drsub
                0x00046a54                __subdf3
                0x00046a54                __aeabi_dsub
                0x00046a58                __adddf3
                0x00046a58                __aeabi_dadd
                0x00046d68                __aeabi_ui2d
                0x00046d68                __floatunsidf
                0x00046d8c                __floatsidf
                0x00046d8c                __aeabi_i2d
                0x00046db4                __aeabi_f2d
                0x00046db4                __extendsfdf2
                0x00046df4                __floatundidf
                0x00046df4                __aeabi_ul2d
                0x00046e08                __floatdidf
                0x00046e08                __aeabi_l2d
 .text          0x00046e68      0x49c /opt/toolchain_hisi_ipsec/arm-hsan-linux-uclibcgnueabi/bin/../lib/gcc/arm-hsan-linux-uclibcgnueabi/4.4.6/libgcc.a(_arm_muldivdf3.o)
                0x00046e68                __muldf3
                0x00046e68                __aeabi_dmul
                0x000470f8                __divdf3
                0x000470f8                __aeabi_ddiv
 .text          0x00047304      0x144 /opt/toolchain_hisi_ipsec/arm-hsan-linux-uclibcgnueabi/bin/../lib/gcc/arm-hsan-linux-uclibcgnueabi/4.4.6/libgcc.a(_arm_cmpdf2.o)
                0x00047304                __gtdf2
                0x00047304                __gedf2
                0x0004730c                __ltdf2
                0x0004730c                __ledf2
                0x00047314                __cmpdf2
                0x00047314                __nedf2
                0x00047314                __eqdf2
                0x0004739c                __aeabi_cdrcmple
                0x000473b8                __aeabi_cdcmple
                0x000473b8                __aeabi_cdcmpeq
                0x000473d0                __aeabi_dcmpeq
                0x000473e8                __aeabi_dcmplt
                0x00047400                __aeabi_dcmple
                0x00047418                __aeabi_dcmpge
                0x00047430                __aeabi_dcmpgt
 .text          0x00047448       0x5c /opt/toolchain_hisi_ipsec/arm-hsan-linux-uclibcgnueabi/bin/../lib/gcc/arm-hsan-linux-uclibcgnueabi/4.4.6/libgcc.a(_arm_fixdfsi.o)
                0x00047448                __fixdfsi
                0x00047448                __aeabi_d2iz
 .text          0x000474a4       0x54 /opt/toolchain_hisi_ipsec/arm-hsan-linux-uclibcgnueabi/bin/../lib/gcc/arm-hsan-linux-uclibcgnueabi/4.4.6/libgcc.a(_arm_fixunsdfsi.o)
                0x000474a4                __fixunsdfsi
                0x000474a4                __aeabi_d2uiz
 .text          0x000474f8       0x1c /opt/toolchain_hisi_ipsec/arm-hsan-linux-uclibcgnueabi/bin/../lib/gcc/arm-hsan-linux-uclibcgnueabi/4.4.6/libgcc.a(_aeabi_ldivmod.o)
                0x000474f8                __aeabi_ldivmod
 .text          0x00047514       0x1c /opt/toolchain_hisi_ipsec/arm-hsan-linux-uclibcgnueabi/bin/../lib/gcc/arm-hsan-linux-uclibcgnueabi/4.4.6/libgcc.a(_aeabi_uldivmod.o)
                0x00047514                __aeabi_uldivmod
 .text          0x00047530       0x14 /opt/toolchain_hisi_ipsec/arm-hsan-linux-uclibcgnueabi/bin/../lib/gcc/arm-hsan-linux-uclibcgnueabi/4.4.6/libgcc.a(_dvmd_lnx.o)
                0x00047530                __div0
 .text          0x00047544       0x90 /opt/toolchain_hisi_ipsec/arm-hsan-linux-uclibcgnueabi/bin/../lib/gcc/arm-hsan-linux-uclibcgnueabi/4.4.6/libgcc.a(bpabi.o)
                0x00047544                __gnu_uldivmod_helper
                0x0004758c                __gnu_ldivmod_helper
 .text          0x000475d4      0x4a0 /opt/toolchain_hisi_ipsec/arm-hsan-linux-uclibcgnueabi/bin/../lib/gcc/arm-hsan-linux-uclibcgnueabi/4.4.6/libgcc.a(_divdi3.o)
                0x000475d4                __divdi3
 .text          0x00047a74      0x42c /opt/toolchain_hisi_ipsec/arm-hsan-linux-uclibcgnueabi/bin/../lib/gcc/arm-hsan-linux-uclibcgnueabi/4.4.6/libgcc.a(_udivdi3.o)
                0x00047a74                __udivdi3
 .text          0x00047ea0       0x48 /opt/toolchain_hisi_ipsec/arm-hsan-linux-uclibcgnueabi/bin/../lib/gcc/arm-hsan-linux-uclibcgnueabi/4.4.6/libgcc.a(_clzsi2.o)
                0x00047ea0                __clzsi2
 .text          0x00047ee8       0x34 /home/luokunling/open-HG633/BR-R5-HG633HG658v2-20140408/output/host/usr/arm-unknown-linux-uclibcgnueabi/sysroot/usr/lib/uclibc_nonshared.a(atexit.os)
                0x00047ee8                atexit
 *(SORT(.gnu.warning))
 *(SORT(.glue_7t))
 .glue_7t       0x00000000        0x0 linker stubs
 *(SORT(.glue_7))
 .glue_7        0x00000000        0x0 linker stubs
 *(SORT(.vfp11_veneer))
 .vfp11_veneer  0x00000000        0x0 linker stubs
 *(SORT(.v4_bx))
 .v4_bx         0x00000000        0x0 linker stubs

.fini           0x00047f1c       0x10
 *(SORT(.fini))
 .fini          0x00047f1c        0xc /home/luokunling/open-HG633/BR-R5-HG633HG658v2-20140408/output/host/usr/arm-unknown-linux-uclibcgnueabi/sysroot/usr/lib/crti.o
                0x00047f1c                _fini
 .fini          0x00047f28        0x4 /home/luokunling/open-HG633/BR-R5-HG633HG658v2-20140408/output/host/usr/arm-unknown-linux-uclibcgnueabi/sysroot/usr/lib/crtn.o
                0x00047f2c                PROVIDE (__etext, .)
                0x00047f2c                PROVIDE (_etext, .)
                0x00047f2c                PROVIDE (etext, .)

.rodata         0x00047f2c     0x9191
 *(SORT(.rodata) SORT(.rodata.*) SORT(.gnu.linkonce.r.*))
 .rodata.install_dir.7207
                0x00047f2c       0x14 libbb/lib.a(appletlib.o)
 .rodata.applet_main
                0x00047f40       0xe8 libbb/lib.a(appletlib.o)
                0x00047f40                applet_main
 .rodata.const_int_0
                0x00048028        0x4 libbb/lib.a(messages.o)
                0x00048028                const_int_0
 .rodata.const_int_1
                0x0004802c        0x4 libbb/lib.a(messages.o)
                0x0004802c                const_int_1
 .rodata.OptArray
                0x00048030       0xc0 networking/lib.a(ifconfig.o)
 .rodata.Arg1Opt
                0x000480f0       0x80 networking/lib.a(ifconfig.o)
 .rodata.hwtypes
                0x00048170       0x18 networking/lib.a(interface.o)
 .rodata.ppp_hwtype
                0x00048188       0x20 networking/lib.a(interface.o)
 .rodata.sit_hwtype
                0x000481a8       0x20 networking/lib.a(interface.o)
 .rodata.ether_hwtype
                0x000481c8       0x20 networking/lib.a(interface.o)
 .rodata.unspec_hwtype
                0x000481e8       0x20 networking/lib.a(interface.o)
 .rodata.unspec_aftype
                0x00048208       0x2c networking/lib.a(interface.o)
 .rodata.inet6_aftype
                0x00048234       0x2c networking/lib.a(interface.o)
 .rodata.inet_aftype
                0x00048260       0x2c networking/lib.a(interface.o)
 .rodata.ss_fmt
                0x0004828c        0xc networking/lib.a(interface.o)
 .rodata.loop_hwtype
                0x00048298       0x20 networking/lib.a(interface.o)
 .rodata.aftypes
                0x000482b8       0x10 networking/lib.a(interface.o)
 .rodata.if_port_text
                0x000482c8       0x20 networking/lib.a(interface.o)
 .rodata.tcp_state
                0x000482e8       0x30 networking/lib.a(netstat.o)
 .rodata.CSWTCH.81
                0x00048318       0x14 networking/lib.a(netstat.o)
 .rodata.CSWTCH.84
                0x0004832c       0x1c networking/lib.a(netstat.o)
 .rodata.flagvals
                0x00048348       0x20 networking/lib.a(route.o)
 .rodata.flags_ipvx
                0x00048368       0x10 networking/lib.a(route.o)
 .rodata.smux_protos
                0x00048378       0x18 networking/lib.a(smuxctl.o)
 .rodata.cmds   0x00048390       0x10 networking/lib.a(smuxctl.o)
 .rodata.ttab.7309
                0x000483a0       0x4c networking/lib.a(traceroute.o)
 .rodata.keywords
                0x000483ec      0x130 networking/udhcp/lib.a(files.o)
 .rodata.blank_chaddr.7074
                0x0004851c       0x10 networking/udhcp/lib.a(leases.o)
 .rodata.dhcp_options
                0x0004852c       0x44 networking/udhcp/lib.a(options.o)
                0x0004852c                dhcp_options
 .rodata.max_option_length
                0x00048570        0xc networking/udhcp/lib.a(script.o)
 .rodata.tokname_array
                0x0004857c       0x74 shell/lib.a(ash.o)
 .rodata.optletters_optnames
                0x000485f0       0x38 shell/lib.a(ash.o)
 .rodata.varinit_data
                0x00048628       0x60 shell/lib.a(ash.o)
 .rodata.limits_name
                0x00048688       0x80 shell/lib.a(ash.o)
 .rodata.nodesize
                0x00048708       0x34 shell/lib.a(ash.o)
 .rodata.S_I_T  0x0004873c       0x30 shell/lib.a(ash.o)
 .rodata.limits_tbl
                0x0004876c       0x24 shell/lib.a(ash.o)
 .rodata.CSWTCH.876
                0x00048790        0x8 shell/lib.a(ash.o)
 .rodata.CSWTCH.879
                0x00048798       0x30 shell/lib.a(ash.o)
 .rodata.bltin.12399
                0x000487c8        0x8 shell/lib.a(ash.o)
 .rodata.builtintab
                0x000487d0      0x150 shell/lib.a(ash.o)
 .rodata.vstype.9219
                0x00048920       0x40 shell/lib.a(ash.o)
 .rodata.filesystems.7590
                0x00048960       0x24 util-linux/lib.a(mount.o)
 .rodata.mount_option_str
                0x00048984       0xcc util-linux/lib.a(mount.o)
 .rodata.mount_options
                0x00048a50       0x78 util-linux/lib.a(mount.o)
 .rodata.CSWTCH.88
                0x00048ac8       0x4c atpconfig/lib.a(ping.o)
 .rodata.C.87.7787
                0x00048b14       0x14 atpconfig/lib.a(traceroute6.o)
 .rodata.C.86.7786
                0x00048b28       0x14 atpconfig/lib.a(traceroute6.o)
 .rodata.HTTPDigest_FieldNames
                0x00048b3c       0x30 atpconfig/lib.a(wget.o)
 .rodata.C.36.11307
                0x00048b6c        0xc atpconfig/lib.a(wget.o)
 .rodata.prefilled.7051
                0x00048b78       0x30 archival/lib.a(tar.o)
 .rodata.argv_dash.6780
                0x00048ba8        0x8 coreutils/lib.a(cat.o)
 .rodata.isoformats.6799
                0x00048bb0       0x10 coreutils/lib.a(date.o)
 .rodata.opt_flags
                0x00048bc0       0x48 coreutils/lib.a(ls.o)
 .rodata.dotdir.7319
                0x00048c08        0x4 coreutils/lib.a(ls.o)
 .rodata.modes_cubp
                0x00048c0c        0xc coreutils/lib.a(mknod.o)
 .rodata.ops    0x00048c18       0xf0 coreutils/lib.a(test.o)
 .rodata.tokeninfo
                0x00048d08      0x18c editors/lib.a(awk.o)
 .rodata.magic.13909
                0x00048e94        0xc init/lib.a(halt.o)
 .rodata.signals.13910
                0x00048ea0        0xc init/lib.a(halt.o)
 .rodata.actions.7127
                0x00048eac       0x48 init/lib.a(init.o)
 .rodata.environment
                0x00048ef4       0x14 init/lib.a(init.o)
 .rodata.bb_null_long_options
                0x00048f08       0x10 libbb/lib.a(getopt32.o)
 .rodata.type_chars
                0x00048f18       0x10 libbb/lib.a(mode_string.o)
 .rodata.mode_chars
                0x00048f28        0x8 libbb/lib.a(mode_string.o)
 .rodata.perm_mask.6782
                0x00048f30       0x18 libbb/lib.a(parse_mode.o)
 .rodata.who_mask.6781
                0x00048f48       0x10 libbb/lib.a(parse_mode.o)
 .rodata.signals
                0x00048f58       0xe0 libbb/lib.a(u_signal_names.o)
 .rodata.applet_nameofs
                0x00049038       0x74 libbb/lib.a(appletlib.o)
                0x00049038                applet_nameofs
 .rodata.ife_print_flags_mask.7514
                0x000490ac       0x1a networking/lib.a(interface.o)
 .rodata.MAC_BCAST_ADDR
                0x000490c6        0x6 networking/udhcp/lib.a(common.o)
                0x000490c6                MAC_BCAST_ADDR
 .rodata.permmask.15050
                0x000490cc       0x12 shell/lib.a(ash.o)
 .rodata.cpdist
                0x000490de       0x3c archival/libunarchive/lib.a(decompress_unzip.o)
 .rodata.cplens
                0x0004911a       0x3e archival/libunarchive/lib.a(decompress_unzip.o)
 .rodata.mask_bits
                0x00049158       0x22 archival/libunarchive/lib.a(decompress_unzip.o)
 .rodata.PRIMES
                0x0004917a        0xa editors/lib.a(awk.o)
 .rodata.usr_sbin.7206
                0x00049184        0xa libbb/lib.a(appletlib.o)
 .rodata.applet_install_loc
                0x0004918e       0x1d libbb/lib.a(appletlib.o)
                0x0004918e                applet_install_loc
 .rodata.applet_names
                0x000491ab      0x164 libbb/lib.a(appletlib.o)
                0x000491ab                applet_names
 .rodata.str1.1
                0x0004930f      0x261 libbb/lib.a(appletlib.o)
                                0x275 (size before relaxing)
 .rodata.packed_usage
                0x00049570     0x1a4b libbb/lib.a(appletlib.o)
 .rodata.usr_bin.7205
                0x0004afbb        0x9 libbb/lib.a(appletlib.o)
 .rodata.str1.1
                0x0004afc4        0x7 libbb/lib.a(concat_path_file.o)
                                  0xa (size before relaxing)
 .rodata.bb_msg_memory_exhausted
                0x0004afcb       0x11 libbb/lib.a(messages.o)
                0x0004afcb                bb_msg_memory_exhausted
 .rodata.bb_banner
                0x0004afdc       0x13 libbb/lib.a(messages.o)
                0x0004afdc                bb_banner
 .rodata.bb_msg_perm_denied_are_you_root
                0x0004afef       0x23 libbb/lib.a(messages.o)
                0x0004afef                bb_msg_perm_denied_are_you_root
 .rodata.bb_msg_can_not_create_raw_socket
                0x0004b012       0x18 libbb/lib.a(messages.o)
                0x0004b012                bb_msg_can_not_create_raw_socket
 .rodata.bb_msg_read_error
                0x0004b02a        0xb libbb/lib.a(messages.o)
                0x0004b02a                bb_msg_read_error
 .rodata.bb_dev_null
                0x0004b035        0xa libbb/lib.a(messages.o)
                0x0004b035                bb_dev_null
 .rodata.bb_busybox_exec_path
                0x0004b03f        0xd libbb/lib.a(messages.o)
                0x0004b03f                bb_busybox_exec_path
 .rodata.bb_msg_write_error
                0x0004b04c        0xc libbb/lib.a(messages.o)
                0x0004b04c                bb_msg_write_error
 .rodata.bb_msg_requires_arg
                0x0004b058       0x18 libbb/lib.a(messages.o)
                0x0004b058                bb_msg_requires_arg
 .rodata.bb_msg_standard_output
                0x0004b070       0x10 libbb/lib.a(messages.o)
                0x0004b070                bb_msg_standard_output
 .rodata.bb_str_default
                0x0004b080        0x8 libbb/lib.a(messages.o)
                0x0004b080                bb_str_default
 .rodata.bb_msg_invalid_date
                0x0004b088       0x12 libbb/lib.a(messages.o)
                0x0004b088                bb_msg_invalid_date
 .rodata.bb_default_login_shell
                0x0004b09a        0x9 libbb/lib.a(messages.o)
                0x0004b09a                bb_default_login_shell
 .rodata.bb_PATH_root_path
                0x0004b0a3       0x23 libbb/lib.a(messages.o)
                0x0004b0a3                bb_PATH_root_path
 .rodata.str1.1
                0x00000000        0x7 libbb/lib.a(perror_msg.o)
                                  0x3 (size before relaxing)
 .rodata.str1.1
                0x00000000        0x6 libbb/lib.a(verror_msg.o)
 .rodata.str1.1
                0x0004b0c6      0x118 libbb/lib.a(xfuncs.o)
                                0x11f (size before relaxing)
 .rodata.str1.1
                0x0004b1de       0x26 libbb/lib.a(xreadlink.o)
 .rodata.str1.1
                0x0004b204       0x17 libbb/lib.a(copyfd.o)
 .rodata.str1.1
                0x00000000        0x3 libbb/lib.a(perror_msg_and_die.o)
 .rodata.str1.1
                0x00000000       0x17 libbb/lib.a(read.o)
                                 0x10 (size before relaxing)
 .rodata.str1.1
                0x0004b21b       0xb2 loginutils/lib.a(su.o)
                                 0xbf (size before relaxing)
 .rodata.DowAry
                0x0004b2cd       0x16 miscutils/lib.a(crond.o)
 .rodata.str1.1
                0x0004b2e3      0x1e3 miscutils/lib.a(crond.o)
                                0x1f2 (size before relaxing)
 .rodata.MonAry
                0x0004b4c6       0x25 miscutils/lib.a(crond.o)
 .rodata.str1.1
                0x0004b4eb      0x118 miscutils/lib.a(crontab.o)
                                0x17d (size before relaxing)
 .rodata.str1.1
                0x0004b603      0x12a miscutils/lib.a(makedevs.o)
                                0x12c (size before relaxing)
 .rodata        0x0004b72d        0xc miscutils/lib.a(taskset.o)
 .rodata.str1.1
                0x0004b739       0x44 miscutils/lib.a(taskset.o)
 .rodata.str1.1
                0x0004b77d       0x7f modutils/lib.a(insmod.o)
                                 0x83 (size before relaxing)
 .rodata.str1.1
                0x0004b7fc      0x168 networking/lib.a(ifconfig.o)
                                0x178 (size before relaxing)
 .rodata.ife_print_flags_strs.7513
                0x0004b964       0x6a networking/lib.a(interface.o)
 .rodata.str1.1
                0x0004b9ce      0x460 networking/lib.a(interface.o)
                                0x490 (size before relaxing)
 .rodata.TRext  0x0004be2e        0xf networking/lib.a(interface.o)
 .rodata.str1.1
                0x0004be3d      0x42b networking/lib.a(netstat.o)
                                0x454 (size before relaxing)
 .rodata.tbl_verb
                0x0004c268       0x15 networking/lib.a(route.o)
 .rodata.str1.1
                0x0004c27d      0x247 networking/lib.a(route.o)
                                0x269 (size before relaxing)
 .rodata.tbl_ipvx
                0x0004c4c4       0x68 networking/lib.a(route.o)
 .rodata.flagchars
                0x0004c52c        0x9 networking/lib.a(route.o)
 .rodata.tbl_hash_net_host
                0x0004c535        0xf networking/lib.a(route.o)
 .rodata.str1.1
                0x0004c544       0x1d networking/lib.a(smuxctl.o)
 .rodata.str1.1
                0x0004c561      0x5c6 networking/lib.a(traceroute.o)
                                0x627 (size before relaxing)
 .rodata.conf_file_name
                0x0004cb27       0x16 networking/lib.a(vconfig.o)
 .rodata.str1.1
                0x0004cb3d       0x14 networking/lib.a(vconfig.o)
                                 0x27 (size before relaxing)
 .rodata.name_types
                0x0004cb51       0x4c networking/lib.a(vconfig.o)
 .rodata.cmds   0x0004cb9d       0x66 networking/lib.a(vconfig.o)
 .rodata.str1.1
                0x0004cc03       0x86 networking/lib.a(zcip.o)
                                 0xa3 (size before relaxing)
 .rodata.str1.1
                0x0004cc89      0x256 networking/udhcp/lib.a(dhcpc.o)
                                0x266 (size before relaxing)
 .rodata.udhcpc_longopts.7199
                0x0004cedf       0xd9 networking/udhcp/lib.a(dhcpc.o)
 .rodata.str1.1
                0x0004cfb8      0x10f networking/udhcp/lib.a(dhcpd.o)
                                0x13d (size before relaxing)
 .rodata.str1.1
                0x0004d0c7      0x14b networking/udhcp/lib.a(files.o)
                                0x177 (size before relaxing)
 .rodata.str1.1
                0x0004d212       0x33 networking/udhcp/lib.a(leases.o)
 .rodata.dhcp_option_lengths
                0x0004d245        0xb networking/udhcp/lib.a(options.o)
                0x0004d245                dhcp_option_lengths
 .rodata.str1.1
                0x0004d250       0x68 networking/udhcp/lib.a(options.o)
 .rodata.dhcp_option_strings
                0x0004d2b8       0xfb networking/udhcp/lib.a(options.o)
                0x0004d2b8                dhcp_option_strings
 .rodata.str1.1
                0x0004d3b3       0x29 networking/udhcp/lib.a(packet.o)
                                 0x3c (size before relaxing)
 .rodata.str1.1
                0x0004d3dc       0x6e networking/udhcp/lib.a(script.o)
                                 0x90 (size before relaxing)
 .rodata.str1.1
                0x0004d44a       0x75 networking/udhcp/lib.a(serverpacket.o)
 .rodata.str1.1
                0x0004d4bf       0x13 networking/udhcp/lib.a(signalpipe.o)
 .rodata.str1.1
                0x0004d4d2       0x4d networking/udhcp/lib.a(socket.o)
                                 0x5b (size before relaxing)
 .rodata.str1.1
                0x0004d51f       0x22 networking/udhcp/lib.a(arpping.o)
 .rodata.str1.1
                0x0004d541       0xaf networking/udhcp/lib.a(clientpacket.o)
 .rodata.str1.1
                0x0004d5f0       0x93 procps/lib.a(kill.o)
                                 0x97 (size before relaxing)
 .rodata.str1.1
                0x0004d683       0x5b procps/lib.a(ps.o)
 .rodata.Xetpriority_msg.6790
                0x0004d6de        0xd procps/lib.a(renice.o)
 .rodata.opts.6798
                0x0004d6eb        0x7 procps/lib.a(renice.o)
 .rodata.str1.1
                0x0004d6f2       0x1f procps/lib.a(renice.o)
 .rodata.str1.1
                0x0004d711      0x1f4 procps/lib.a(top.o)
                                0x20c (size before relaxing)
 .rodata        0x0004d905       0x6e shell/lib.a(ash.o)
 .rodata.dolatstr
                0x0004d973        0x5 shell/lib.a(ash.o)
 .rodata.types.13885
                0x0004d978        0x6 shell/lib.a(ash.o)
 .rodata.spclchars.10162
                0x0004d97e        0xa shell/lib.a(ash.o)
 .rodata.timescmd_str
                0x0004d988        0x9 shell/lib.a(ash.o)
 .rodata.str1.1
                0x0004d991      0x943 shell/lib.a(ash.o)
                                0x9be (size before relaxing)
 .rodata.defifsvar
                0x0004e2d4        0x8 shell/lib.a(ash.o)
 .rodata.qchars.9847
                0x0004e2dc        0x3 shell/lib.a(ash.o)
 .rodata.permuser.15048
                0x0004e2df        0x3 shell/lib.a(ash.o)
 .rodata.homestr
                0x0004e2e2        0x5 shell/lib.a(ash.o)
 .rodata.op_tokens
                0x0004e2e7       0x8d shell/lib.a(ash.o)
 .rodata.permmode.15049
                0x0004e374        0x3 shell/lib.a(ash.o)
 .rodata.metachars.10934
                0x0004e377        0x4 shell/lib.a(ash.o)
 .rodata.xxreadtoken_chars
                0x0004e37b        0x7 shell/lib.a(ash.o)
 .rodata.syntax_index_table.8197
                0x0004e382       0x1a shell/lib.a(ash.o)
 .rodata.snlfmt
                0x0004e39c        0x4 shell/lib.a(ash.o)
 .rodata.illnum
                0x0004e3a0       0x13 shell/lib.a(ash.o)
 .rodata.xxreadtoken_tokens
                0x0004e3b3        0xa shell/lib.a(ash.o)
 .rodata.spec_symbls.8196
                0x0004e3bd       0x1b shell/lib.a(ash.o)
 .rodata.str1.1
                0x0004e3d8       0xb1 util-linux/lib.a(mount.o)
                                 0xb7 (size before relaxing)
 .rodata.str1.1
                0x0004e489       0x82 util-linux/lib.a(umount.o)
                                 0x84 (size before relaxing)
 .rodata.options
                0x0004e50b       0x2e atpconfig/lib.a(arp.o)
 .rodata        0x0004e539        0x7 atpconfig/lib.a(arp.o)
 .rodata.str1.1
                0x0004e540      0x2ff atpconfig/lib.a(arp.o)
                                0x321 (size before relaxing)
 .rodata.str1.1
                0x0004e83f      0x2b7 atpconfig/lib.a(atpcommon.o)
                                0x2db (size before relaxing)
 .rodata.str1.1
                0x0004eaf6      0x21d atpconfig/lib.a(ftpgetput.o)
                                0x2bc (size before relaxing)
 .rodata.str1.1
                0x0004ed13       0x31 atpconfig/lib.a(gplgethostbyname.o)
                                 0x33 (size before relaxing)
 .rodata.str1.1
                0x0004ed44      0x364 atpconfig/lib.a(ping.o)
                                0x3b6 (size before relaxing)
 .rodata.str1.1
                0x0004f0a8      0x34b atpconfig/lib.a(traceroute6.o)
                                0x514 (size before relaxing)
 .rodata.str1.1
                0x0004f3f3      0x405 atpconfig/lib.a(wget.o)
                                0x4d2 (size before relaxing)
 .rodata.keywords
                0x0004f7f8       0x44 atpconfig/lib.a(wget.o)
 .rodata.str1.1
                0x0004f83c      0x1a4 archival/lib.a(tar.o)
                                0x1b9 (size before relaxing)
 .rodata.tar_longopts
                0x0004f9e0       0xd6 archival/lib.a(tar.o)
 .rodata.str1.1
                0x0004fab6       0xb3 archival/libunarchive/lib.a(data_extract_all.o)
                                 0xc9 (size before relaxing)
 .rodata.str1.1
                0x0004fb69       0x1a archival/libunarchive/lib.a(decompress_bunzip2.o)
                                 0x26 (size before relaxing)
 .rodata.str1.1
                0x0004fb83       0x84 archival/libunarchive/lib.a(decompress_uncompress.o)
                                 0x8f (size before relaxing)
 .rodata        0x0004fc07        0x5 archival/libunarchive/lib.a(get_header_tar.o)
 .rodata.str1.1
                0x0004fc0c       0xb3 archival/libunarchive/lib.a(get_header_tar.o)
 .rodata.str1.1
                0x0004fcbf       0x13 archival/libunarchive/lib.a(get_header_tar_gz.o)
 .rodata.str1.1
                0x0004fcd2       0x36 archival/libunarchive/lib.a(header_verbose_list.o)
 .rodata.str1.1
                0x0004fd08        0xc archival/libunarchive/lib.a(open_transformer.o)
 .rodata.str1.1
                0x0004fd14        0xd archival/libunarchive/lib.a(seek_by_jump.o)
 .rodata.cpdext
                0x0004fd21       0x1e archival/libunarchive/lib.a(decompress_unzip.o)
 .rodata.cplext
                0x0004fd3f       0x1f archival/libunarchive/lib.a(decompress_unzip.o)
 .rodata.str1.1
                0x0004fd5e       0x4c archival/libunarchive/lib.a(decompress_unzip.o)
                                 0x52 (size before relaxing)
 .rodata.border
                0x0004fdaa       0x13 archival/libunarchive/lib.a(decompress_unzip.o)
 .rodata.setconsole_longopts
                0x0004fdbd        0x9 console-tools/lib.a(setconsole.o)
 .rodata.str1.1
                0x0004fdc6       0x16 console-tools/lib.a(setconsole.o)
                                 0x21 (size before relaxing)
 .rodata.str1.1
                0x00000000       0x16 coreutils/lib.a(cat.o)
                                  0x4 (size before relaxing)
 .rodata.str1.1
                0x0004fddc       0x14 coreutils/lib.a(chmod.o)
                                 0x17 (size before relaxing)
 .rodata.str1.1
                0x0004fdf0       0x29 coreutils/lib.a(cp.o)
 .rodata.str1.1
                0x0004fe19       0xc9 coreutils/lib.a(date.o)
                                0x100 (size before relaxing)
 .rodata.str1.1
                0x0004fee2       0x42 coreutils/lib.a(echo.o)
                                 0x45 (size before relaxing)
 .rodata.ls_options
                0x0004ff24       0x12 coreutils/lib.a(ls.o)
 .rodata.str1.1
                0x0004ff36       0x62 coreutils/lib.a(ls.o)
                                 0x68 (size before relaxing)
 .rodata.str1.1
                0x0004ff98       0x16 coreutils/lib.a(mkdir.o)
 .rodata.modes_chars
                0x0004ffae        0x8 coreutils/lib.a(mknod.o)
 .rodata.str1.1
                0x0004ffb6       0x4b coreutils/lib.a(mv.o)
                                 0x4f (size before relaxing)
 .rodata.fmt    0x00050001       0x2e coreutils/lib.a(mv.o)
 .rodata.str1.1
                0x0005002f       0x1f coreutils/lib.a(rm.o)
                                 0x27 (size before relaxing)
 .rodata.str1.1
                0x0005004e       0x5f coreutils/lib.a(test.o)
                                 0x74 (size before relaxing)
 .rodata.str1.1
                0x000500ad       0x11 coreutils/libcoreutils/lib.a(cp_mv_stat.o)
 .rodata.str1.1
                0x000500be        0x3 coreutils/libcoreutils/lib.a(getopt_mk_fifo_nod.o)
 .rodata.str1.1
                0x000500c1      0x157 debianutils/lib.a(start_stop_daemon.o)
                                0x168 (size before relaxing)
 .rodata.start_stop_daemon_longopts
                0x00050218       0x95 debianutils/lib.a(start_stop_daemon.o)
 .rodata.EMSG_NO_MATH
                0x000502ad       0x20 editors/lib.a(awk.o)
 .rodata.EMSG_NOT_ARRAY
                0x000502cd        0xd editors/lib.a(awk.o)
 .rodata.EMSG_POSSIBLE_ERROR
                0x000502da       0x16 editors/lib.a(awk.o)
 .rodata.str1.1
                0x000502f0       0xcd editors/lib.a(awk.o)
                                 0xdc (size before relaxing)
 .rodata.EMSG_INTERNAL_ERROR
                0x000503bd        0xf editors/lib.a(awk.o)
 .rodata.EMSG_TOO_FEW_ARGS
                0x000503cc       0x1e editors/lib.a(awk.o)
 .rodata.vValues
                0x000503ea       0x18 editors/lib.a(awk.o)
 .rodata.EMSG_UNEXP_EOS
                0x00050402       0x19 editors/lib.a(awk.o)
 .rodata.EMSG_DIV_BY_ZERO
                0x0005041b       0x11 editors/lib.a(awk.o)
 .rodata.tokenlist
                0x0005042c      0x1b9 editors/lib.a(awk.o)
 .rodata.EMSG_UNEXP_TOKEN
                0x000505e5       0x11 editors/lib.a(awk.o)
 .rodata.EMSG_UNDEF_FUNC
                0x000505f6       0x1b editors/lib.a(awk.o)
 .rodata.EMSG_INV_FMT
                0x00050611       0x19 editors/lib.a(awk.o)
 .rodata.vNames
                0x0005062a       0x6b editors/lib.a(awk.o)
 .rodata.str1.1
                0x00050695      0x1ce editors/lib.a(diff.o)
                                0x1dd (size before relaxing)
 .rodata.str1.1
                0x00050863      0x1cb editors/lib.a(sed.o)
                                0x1dd (size before relaxing)
 .rodata.semicolon_whitespace
                0x00050a2e        0x7 editors/lib.a(sed.o)
 .rodata.str1.1
                0x00050a35       0x46 findutils/lib.a(grep.o)
                                 0x51 (size before relaxing)
 .rodata.str1.1
                0x00050a7b       0x3e init/lib.a(halt.o)
                                 0x41 (size before relaxing)
 .rodata.press_enter.6930
                0x00050ab9       0x2f init/lib.a(init.o)
 .rodata.str1.1
                0x00050ae8      0x1f9 init/lib.a(init.o)
                                0x244 (size before relaxing)
 .rodata.str1.1
                0x00050ce1       0x3e libbb/lib.a(bb_pwd.o)
                                 0x42 (size before relaxing)
 .rodata.str1.1
                0x00050d1f       0x12 libbb/lib.a(change_identity.o)
 .rodata.str1.1
                0x00050d31      0x14a libbb/lib.a(copy_file.o)
                                0x18c (size before relaxing)
 .rodata.str1.1
                0x00050e7b        0xe libbb/lib.a(correct_password.o)
 .rodata.str1.1
                0x00050e89        0xa libbb/lib.a(create_icmp6_socket.o)
 .rodata.str1.1
                0x00000000        0xa libbb/lib.a(create_icmp_socket.o)
                                  0x5 (size before relaxing)
 .rodata.str1.1
                0x00050e93        0x4 libbb/lib.a(getopt32.o)
 .rodata.str1.1
                0x00050e97       0x27 libbb/lib.a(inet_common.o)
                                 0x29 (size before relaxing)
 .rodata.str1.1
                0x00000000        0x1 libbb/lib.a(inode_hash.o)
 .rodata.str1.1
                0x00050ebe       0x41 libbb/lib.a(lineedit.o)
                                 0x49 (size before relaxing)
 .rodata.str1.1
                0x00050eff       0x33 libbb/lib.a(make_directory.o)
 .rodata.bb_path_mtab_file
                0x00050f32        0xd libbb/lib.a(mtab_file.o)
                0x00050f32                bb_path_mtab_file
 .rodata.perm_chars.6784
                0x00050f3f        0x7 libbb/lib.a(parse_mode.o)
 .rodata.who_chars.6783
                0x00050f46        0x5 libbb/lib.a(parse_mode.o)
 .rodata.charmap.6780
                0x00050f4b       0x12 libbb/lib.a(process_escape_sequence.o)
 .rodata.str1.1
                0x00050f5d       0x1a libbb/lib.a(procps.o)
                                 0x34 (size before relaxing)
 .rodata.str1.1
                0x00050f77       0x63 libbb/lib.a(remove_file.o)
                                 0x99 (size before relaxing)
 .rodata.str1.1
                0x00050fda        0xe libbb/lib.a(run_shell.o)
                                 0x15 (size before relaxing)
 .rodata.str1.1
                0x00050fe8        0x5 libbb/lib.a(safe_poll.o)
 .rodata.str1.1
                0x00050fed       0x32 libbb/lib.a(setup_environment.o)
                                 0x4e (size before relaxing)
 .rodata.str1.1
                0x0005101f        0x6 libbb/lib.a(trim.o)
 .rodata.str1.1
                0x00051025        0x4 libbb/lib.a(u_signal_names.o)
 .rodata.str1.1
                0x00000000        0x7 libbb/lib.a(vfork_daemon_rexec.o)
 .rodata.str1.1
                0x00051029       0x5e libbb/lib.a(xatonum.o)
 .rodata.str1.1
                0x00051087        0xc libbb/lib.a(xconnect.o)
                                 0x49 (size before relaxing)
 .rodata.str1.1
                0x00051093        0x7 libbb/lib.a(xgetcwd.o)
 .rodata.str1.1
                0x0005109a        0xd libbb/lib.a(xregcomp.o)
 .rodata.str1.1
                0x000510a7       0x16 libpwdgrp/lib.a(uidgid_get.o)

.rodata1
 *(SORT(.rodata1))

.ARM.extab
 *(SORT(.ARM.extab*) SORT(.gnu.linkonce.armextab.*))
                0x000510bd                PROVIDE (__exidx_start, .)

.ARM.exidx      0x000510c0       0x20
 *(SORT(.ARM.exidx*) SORT(.gnu.linkonce.armexidx.*))
 .ARM.exidx     0x000510c0        0x8 /opt/toolchain_hisi_ipsec/arm-hsan-linux-uclibcgnueabi/bin/../lib/gcc/arm-hsan-linux-uclibcgnueabi/4.4.6/libgcc.a(bpabi.o)
                                 0x10 (size before relaxing)
 .ARM.exidx     0x000510c8        0x8 /opt/toolchain_hisi_ipsec/arm-hsan-linux-uclibcgnueabi/bin/../lib/gcc/arm-hsan-linux-uclibcgnueabi/4.4.6/libgcc.a(_divdi3.o)
 .ARM.exidx     0x000510d0       0x10 /opt/toolchain_hisi_ipsec/arm-hsan-linux-uclibcgnueabi/bin/../lib/gcc/arm-hsan-linux-uclibcgnueabi/4.4.6/libgcc.a(_udivdi3.o)
                                  0x8 (size before relaxing)
                0x000510e0                PROVIDE (__exidx_end, .)

.eh_frame_hdr   0x000510e0        0x0
 *(SORT(.eh_frame_hdr))
 .eh_frame_hdr  0x00000000        0x0 /home/luokunling/open-HG633/BR-R5-HG633HG658v2-20140408/output/host/usr/arm-unknown-linux-uclibcgnueabi/sysroot/usr/lib/crtn.o

.eh_frame       0x000510e0        0x4
 *(SORT(.eh_frame))
 .eh_frame      0x000510e0        0x4 /opt/toolchain_hisi_ipsec/arm-hsan-linux-uclibcgnueabi/bin/../lib/gcc/arm-hsan-linux-uclibcgnueabi/4.4.6/crtend.o

.gcc_except_table
 *(SORT(.gcc_except_table) SORT(.gcc_except_table.*))
                0x000510e4                . = (ALIGN (0x8000) - ((0x8000 - .) & 0x7fff))
                0x000590e4                . = DATA_SEGMENT_ALIGN (0x8000, 0x1000)

.eh_frame
 *(SORT(.eh_frame))

.gcc_except_table
 *(SORT(.gcc_except_table) SORT(.gcc_except_table.*))

.tdata
 *(SORT(.tdata) SORT(.tdata.*) SORT(.gnu.linkonce.td.*))

.tbss
 *(SORT(.tbss) SORT(.tbss.*) SORT(.gnu.linkonce.tb.*))
 *(SORT(.tcommon))

.preinit_array  0x000590e4        0x0
                0x000590e4                PROVIDE (__preinit_array_start, .)
 *(SORT(.preinit_array))
                0x000590e4                PROVIDE (__preinit_array_end, .)

.init_array     0x000590e4        0x4
                0x000590e4                PROVIDE (__init_array_start, .)
 *(SORT(.init_array.*))
 *(SORT(.init_array))
 .init_array    0x000590e4        0x4 /opt/toolchain_hisi_ipsec/arm-hsan-linux-uclibcgnueabi/bin/../lib/gcc/arm-hsan-linux-uclibcgnueabi/4.4.6/crtbegin.o
                0x000590e8                PROVIDE (__init_array_end, .)

.fini_array     0x000590e8        0x4
                0x000590e8                PROVIDE (__fini_array_start, .)
 *(SORT(.fini_array.*))
 *(SORT(.fini_array))
 .fini_array    0x000590e8        0x4 /opt/toolchain_hisi_ipsec/arm-hsan-linux-uclibcgnueabi/bin/../lib/gcc/arm-hsan-linux-uclibcgnueabi/4.4.6/crtbegin.o
                0x000590ec                PROVIDE (__fini_array_end, .)

.ctors
 *crtbegin.o(SORT(.ctors))
 *crtbegin?.o(SORT(.ctors))
 *(SORT(EXCLUDE_FILE(*crtend?.o *crtend.o) .ctors))
 *(SORT(.ctors.*))
 *(SORT(.ctors))

.dtors
 *crtbegin.o(SORT(.dtors))
 *crtbegin?.o(SORT(.dtors))
 *(SORT(EXCLUDE_FILE(*crtend?.o *crtend.o) .dtors))
 *(SORT(.dtors.*))
 *(SORT(.dtors))

.jcr            0x000590ec        0x4
 *(SORT(.jcr))
 .jcr           0x000590ec        0x0 /opt/toolchain_hisi_ipsec/arm-hsan-linux-uclibcgnueabi/bin/../lib/gcc/arm-hsan-linux-uclibcgnueabi/4.4.6/crtbegin.o
 .jcr           0x000590ec        0x4 /opt/toolchain_hisi_ipsec/arm-hsan-linux-uclibcgnueabi/bin/../lib/gcc/arm-hsan-linux-uclibcgnueabi/4.4.6/crtend.o

.data.rel.ro
 *(SORT(.data.rel.ro.local*) SORT(.gnu.linkonce.d.rel.ro.local.*))
 *(SORT(.data.rel.ro*) SORT(.gnu.linkonce.d.rel.ro.*))

.dynamic        0x000590f0      0x108
 *(SORT(.dynamic))
 .dynamic       0x000590f0      0x108 /home/luokunling/open-HG633/BR-R5-HG633HG658v2-20140408/output/host/usr/arm-unknown-linux-uclibcgnueabi/sysroot/usr/lib/libcrypt.so
                0x000590f0                _DYNAMIC
                0x000591f8                . = DATA_SEGMENT_RELRO_END (., 0x0)

.got            0x000591f8      0x43c
 *(SORT(.got.plt))
 .got.plt       0x000591f8      0x438 /home/luokunling/open-HG633/BR-R5-HG633HG658v2-20140408/output/host/usr/arm-unknown-linux-uclibcgnueabi/sysroot/usr/lib/libcrypt.so
                0x000591f8                _GLOBAL_OFFSET_TABLE_
 *(SORT(.igot.plt))
 *(SORT(.got))
 .got           0x00059630        0x4 /home/luokunling/open-HG633/BR-R5-HG633HG658v2-20140408/output/host/usr/arm-unknown-linux-uclibcgnueabi/sysroot/usr/lib/libcrypt.so
 *(SORT(.igot))

.data           0x00059634       0x7a
                0x00059634                PROVIDE (__data_start, .)
 *(SORT(.data) SORT(.data.*) SORT(.gnu.linkonce.d.*))
 .data          0x00059634        0x4 /opt/toolchain_hisi_ipsec/arm-hsan-linux-uclibcgnueabi/bin/../lib/gcc/arm-hsan-linux-uclibcgnueabi/4.4.6/crtbegin.o
                0x00059634                __dso_handle
 .data          0x00059638        0x4 libbb/lib.a(appletlib.o)
                0x00059638                bb_errno
 .data.xfunc_error_retval
                0x0005963c        0x4 libbb/lib.a(default_error_retval.o)
                0x0005963c                xfunc_error_retval
 .data          0x00059640        0x4 libbb/lib.a(messages.o)
                0x00059640                ptr_to_globals
 .data.msg_eol  0x00059644        0x4 libbb/lib.a(verror_msg.o)
                0x00059644                msg_eol
 .data.logmode  0x00059648        0x4 libbb/lib.a(verror_msg.o)
                0x00059648                logmode
 .data.CDir     0x0005964c        0x4 miscutils/lib.a(crond.o)
 .data.LogLevel
                0x00059650        0x4 miscutils/lib.a(crond.o)
 .data.CDir     0x00059654        0x4 miscutils/lib.a(crontab.o)
 .data.flags    0x00059658        0x4 networking/lib.a(netstat.o)
 .data.net_conn_line
                0x0005965c        0x4 networking/lib.a(netstat.o)
 .data.sockfd   0x00059660        0x4 networking/udhcp/lib.a(dhcpc.o)
 .data          0x00059664        0xc shell/lib.a(ash.o)
 .data.plinno   0x00059670        0x4 shell/lib.a(ash.o)
 .data.ttyfd    0x00059674        0x4 shell/lib.a(ash.o)
 .data.parsefile
                0x00059678        0x4 shell/lib.a(ash.o)
 .data.builtinloc
                0x0005967c        0x4 shell/lib.a(ash.o)
 .data.device   0x00059680        0x4 atpconfig/lib.a(arp.o)
 .data.waittime
                0x00059684        0x4 atpconfig/lib.a(traceroute6.o)
                0x00059684                waittime
 .data.nprobes  0x00059688        0x4 atpconfig/lib.a(traceroute6.o)
                0x00059688                nprobes
 .data.datalen  0x0005968c        0x4 atpconfig/lib.a(traceroute6.o)
                0x0005968c                datalen
 .data.max_ttl  0x00059690        0x4 atpconfig/lib.a(traceroute6.o)
                0x00059690                max_ttl
 .data          0x00059694        0x4 coreutils/lib.a(test.o)
 .data.signal_nr
                0x00059698        0x4 debianutils/lib.a(start_stop_daemon.o)
 .data.user_id  0x0005969c        0x4 debianutils/lib.a(start_stop_daemon.o)
 .data.log_fd.6810
                0x000596a0        0x4 init/lib.a(init.o)
 .data.log_console
                0x000596a4        0x4 init/lib.a(init.o)
 .data          0x000596a8        0x4 libbb/lib.a(lineedit.o)
 .data.port     0x000596ac        0x2 atpconfig/lib.a(traceroute6.o)
                0x000596ac                port

.data1
 *(SORT(.data1))
                0x000596ae                _edata = .
                0x000596ae                PROVIDE (edata, .)
                0x000596ae                __bss_start = .
                0x000596ae                __bss_start__ = .

.bss            0x000596b0     0x1e20
 *(SORT(.dynbss))
 .dynbss        0x000596b0       0x2c /home/luokunling/open-HG633/BR-R5-HG633HG658v2-20140408/output/host/usr/arm-unknown-linux-uclibcgnueabi/sysroot/usr/lib/libcrypt.so
                0x000596b0                __ctype_toupper
                0x000596b4                __stdin
                0x000596b8                stdout
                0x000596bc                stderr
                0x000596c0                __ctype_tolower
                0x000596c4                optind
                0x000596c8                environ
                0x000596c8                __environ
                0x000596cc                __stdout
                0x000596d0                stdin
                0x000596d4                opterr
                0x000596d8                optarg
 *(SORT(.bss) SORT(.bss.*) SORT(.gnu.linkonce.b.*))
 .bss.ruid      0x000596dc        0x4 libbb/lib.a(appletlib.o)
 .bss.local_buf
                0x000596e0        0xc libbb/lib.a(xfuncs.o)
 .bss.LogFile   0x000596ec        0x4 miscutils/lib.a(crond.o)
 .bss.FileBase  0x000596f0        0x4 miscutils/lib.a(crond.o)
 .bss.int_list  0x000596f4        0x4 networking/lib.a(interface.o)
 .bss.buff.6913
                0x000596f8        0x4 networking/lib.a(interface.o)
 .bss.buff.6933
                0x000596fc        0x4 networking/lib.a(interface.o)
 .bss.int_last  0x00059700        0x4 networking/lib.a(interface.o)
 .bss.buff.7350
                0x00059704        0x4 networking/lib.a(interface.o)
 .bss.proc_read.7176
                0x00059708        0x4 networking/lib.a(interface.o)
 .bss.buff.6892
                0x0005970c        0x4 networking/lib.a(interface.o)
 .bss.pfTRouteStats
                0x00059710        0x4 networking/lib.a(traceroute.o)
                0x00059710                pfTRouteStats
 .bss.g_lTRouteFlag
                0x00059714        0x4 networking/lib.a(traceroute.o)
 .bss.TRoute_Pid
                0x00059718        0x4 networking/lib.a(traceroute.o)
                0x00059718                TRoute_Pid
 .bss.requested_ip
                0x0005971c        0x4 networking/udhcp/lib.a(dhcpc.o)
 .bss.g_discovercount
                0x00059720        0x4 networking/udhcp/lib.a(dhcpc.o)
 .bss.state     0x00059724        0x4 networking/udhcp/lib.a(dhcpc.o)
 .bss.listen_mode
                0x00059728        0x4 networking/udhcp/lib.a(dhcpc.o)
 .bss.server_addr
                0x0005972c        0x4 networking/udhcp/lib.a(dhcpc.o)
 .bss.timeout   0x00059730        0x4 networking/udhcp/lib.a(dhcpc.o)
 .bss.g_offercount
                0x00059734        0x4 networking/udhcp/lib.a(dhcpd.o)
 .bss.signal_pipe
                0x00059738        0x8 networking/udhcp/lib.a(signalpipe.o)
 .bss.initialized.7115
                0x00059740        0x4 networking/udhcp/lib.a(clientpacket.o)
 .bss.localvars
                0x00059744        0x4 shell/lib.a(ash.o)
 .bss.back_exitstatus
                0x00059748        0x4 shell/lib.a(ash.o)
 .bss.line_input_state
                0x0005974c        0x4 shell/lib.a(ash.o)
 .bss.optionarg
                0x00059750        0x4 shell/lib.a(ash.o)
 .bss.funcblock
                0x00059754        0x4 shell/lib.a(ash.o)
 .bss.jobless   0x00059758        0x4 shell/lib.a(ash.o)
 .bss.lasttoken
                0x0005975c        0x4 shell/lib.a(ash.o)
 .bss.funcstring
                0x00059760        0x4 shell/lib.a(ash.o)
 .bss.jobtab    0x00059764        0x4 shell/lib.a(ash.o)
 .bss.argptr    0x00059768        0x4 shell/lib.a(ash.o)
 .bss.funcstringsize
                0x0005976c        0x4 shell/lib.a(ash.o)
 .bss.mailtime  0x00059770       0x28 shell/lib.a(ash.o)
 .bss.atab      0x00059798        0x4 shell/lib.a(ash.o)
 .bss.quoteflag
                0x0005979c        0x4 shell/lib.a(ash.o)
 .bss.cmdtable  0x000597a0        0x4 shell/lib.a(ash.o)
 .bss.skipcount
                0x000597a4        0x4 shell/lib.a(ash.o)
 .bss.jobctl    0x000597a8        0x4 shell/lib.a(ash.o)
 .bss.mail_var_path_changed
                0x000597ac        0x4 shell/lib.a(ash.o)
 .bss.is_interactive.12125
                0x000597b0        0x4 shell/lib.a(ash.o)
 .bss.did_banner.12126
                0x000597b4        0x4 shell/lib.a(ash.o)
 .bss.parsenleft
                0x000597b8        0x4 shell/lib.a(ash.o)
 .bss.doprompt  0x000597bc        0x4 shell/lib.a(ash.o)
 .bss.parsebackquote
                0x000597c0        0x4 shell/lib.a(ash.o)
 .bss.evalskip  0x000597c4        0x4 shell/lib.a(ash.o)
 .bss.heredoc   0x000597c8        0x4 shell/lib.a(ash.o)
 .bss.exparg    0x000597cc        0x8 shell/lib.a(ash.o)
 .bss.expdest   0x000597d4        0x4 shell/lib.a(ash.o)
 .bss.redirnode
                0x000597d8        0x4 shell/lib.a(ash.o)
 .bss.cmdenviron
                0x000597dc        0x4 shell/lib.a(ash.o)
 .bss.funcblocksize
                0x000597e0        0x4 shell/lib.a(ash.o)
 .bss.funcnest  0x000597e4        0x4 shell/lib.a(ash.o)
 .bss.expdir    0x000597e8        0x4 shell/lib.a(ash.o)
 .bss.cmdedit_prompt
                0x000597ec        0x4 shell/lib.a(ash.o)
 .bss.argbackq  0x000597f0        0x4 shell/lib.a(ash.o)
 .bss.backgndpid
                0x000597f4        0x4 shell/lib.a(ash.o)
 .bss.exitstatus
                0x000597f8        0x4 shell/lib.a(ash.o)
 .bss.initialpgrp
                0x000597fc        0x4 shell/lib.a(ash.o)
 .bss.prev_chk_var_recursive
                0x00059800        0x4 shell/lib.a(ash.o)
 .bss.parselleft
                0x00059804        0x4 shell/lib.a(ash.o)
 .bss.ifsfirst  0x00059808       0x10 shell/lib.a(ash.o)
 .bss.njobs     0x00059818        0x4 shell/lib.a(ash.o)
 .bss.tokpushback
                0x0005981c        0x4 shell/lib.a(ash.o)
 .bss.cmdnextc  0x00059820        0x4 shell/lib.a(ash.o)
 .bss.optptr    0x00059824        0x4 shell/lib.a(ash.o)
 .bss.job_warning
                0x00059828        0x4 shell/lib.a(ash.o)
 .bss.pathopt   0x0005982c        0x4 shell/lib.a(ash.o)
 .bss.heredoclist
                0x00059830        0x4 shell/lib.a(ash.o)
 .bss.startlinno
                0x00059834        0x4 shell/lib.a(ash.o)
 .bss.wordtext  0x00059838        0x4 shell/lib.a(ash.o)
 .bss.backquotelist
                0x0005983c        0x4 shell/lib.a(ash.o)
 .bss.checkkwd  0x00059840        0x4 shell/lib.a(ash.o)
 .bss.curjob    0x00059844        0x4 shell/lib.a(ash.o)
 .bss.loopnest  0x00059848        0x4 shell/lib.a(ash.o)
 .bss.ifslastp  0x0005984c        0x4 shell/lib.a(ash.o)
 .bss.commandname
                0x00059850        0x4 shell/lib.a(ash.o)
 .bss.needprompt
                0x00059854        0x4 shell/lib.a(ash.o)
 .bss.lastcmdentry
                0x00059858        0x4 shell/lib.a(ash.o)
 .bss.basepf    0x0005985c       0x34 shell/lib.a(ash.o)
 .bss.parsenextc
                0x00059890        0x4 shell/lib.a(ash.o)
 .bss.buf.11375
                0x00059894       0x10 shell/lib.a(ash.o)
 .bss.fslist    0x000598a4        0x4 util-linux/lib.a(mount.o)
 .bss.sockfd    0x000598a8        0x4 atpconfig/lib.a(arp.o)
 .bss.ap        0x000598ac        0x4 atpconfig/lib.a(arp.o)
 .bss.hw        0x000598b0        0x4 atpconfig/lib.a(arp.o)
 .bss.hw_set    0x000598b4        0x4 atpconfig/lib.a(arp.o)
 .bss.m_ulImageHeadLen
                0x000598b8        0x4 atpconfig/lib.a(atpcommon.o)
 .bss.m_pcImageHead
                0x000598bc      0x400 atpconfig/lib.a(atpcommon.o)
 .bss.m_pcCfgTool
                0x00059cbc        0x4 atpconfig/lib.a(atpcommon.o)
 .bss.m_pcCfgTool
                0x00059cc0        0x4 atpconfig/lib.a(ftpgetput.o)
 .bss.verbose_flag
                0x00059cc4        0x4 atpconfig/lib.a(ftpgetput.o)
 .bss.iFTPflag  0x00059cc8        0x4 atpconfig/lib.a(ftpgetput.o)
                0x00059cc8                iFTPflag
 .bss.control_stream_in
                0x00059ccc        0x4 atpconfig/lib.a(ftpgetput.o)
 .bss.buf.5955  0x00059cd0      0x1d8 atpconfig/lib.a(gplgethostbyname.o)
 .bss.h.5954    0x00059ea8       0x14 atpconfig/lib.a(gplgethostbyname.o)
 .bss.g_acHost  0x00059ebc       0x40 atpconfig/lib.a(ping.o)
                0x00059ebc                g_acHost
 .bss.pingPid   0x00059efc        0x4 atpconfig/lib.a(ping.o)
                0x00059efc                pingPid
 .bss.g_ulSendPacketCount
                0x00059f00        0x4 atpconfig/lib.a(ping.o)
                0x00059f00                g_ulSendPacketCount
 .bss.pfPingStats
                0x00059f04        0x4 atpconfig/lib.a(ping.o)
                0x00059f04                pfPingStats
 .bss.g_lPingFlag
                0x00059f08        0x4 atpconfig/lib.a(ping.o)
 .bss.waittmp.7669
                0x00059f0c        0x8 atpconfig/lib.a(traceroute6.o)
 .bss.device    0x00059f14        0x4 atpconfig/lib.a(traceroute6.o)
                0x00059f14                device
 .bss.source    0x00059f18        0x4 atpconfig/lib.a(traceroute6.o)
                0x00059f18                source
 .bss.https_mode
                0x00059f1c        0x4 atpconfig/lib.a(wget.o)
 .bss.pcDomain  0x00059f20        0x4 atpconfig/lib.a(wget.o)
                0x00059f20                pcDomain
 .bss.warned.7193
                0x00059f24        0x4 archival/lib.a(tar.o)
 .bss.linkname  0x00059f28        0x4 archival/libunarchive/lib.a(get_header_tar.o)
 .bss.longname  0x00059f2c        0x4 archival/libunarchive/lib.a(get_header_tar.o)
 .bss.end.6926  0x00059f30        0x4 archival/libunarchive/lib.a(get_header_tar.o)
 .bss.all_fmt   0x00059f34        0x4 coreutils/lib.a(ls.o)
 .bss.current_time_t
                0x00059f38        0x4 coreutils/lib.a(ls.o)
 .bss.status    0x00059f3c        0x4 coreutils/lib.a(ls.o)
 .bss.pidfile   0x00059f40        0x4 debianutils/lib.a(start_stop_daemon.o)
 .bss.cmdname   0x00059f44        0x4 debianutils/lib.a(start_stop_daemon.o)
 .bss.execname  0x00059f48        0x4 debianutils/lib.a(start_stop_daemon.o)
 .bss.quiet     0x00059f4c        0x4 debianutils/lib.a(start_stop_daemon.o)
 .bss.userspec  0x00059f50        0x4 debianutils/lib.a(start_stop_daemon.o)
 .bss.found     0x00059f54        0x4 debianutils/lib.a(start_stop_daemon.o)
 .bss.got_cont  0x00059f58        0x4 init/lib.a(init.o)
 .bss.init_action_list
                0x00059f5c        0x4 init/lib.a(init.o)
 .bss.cache.6827
                0x00059f60        0x4 libbb/lib.a(inet_common.o)
 .bss.ino_dev_hashtable
                0x00059f64        0x4 libbb/lib.a(inode_hash.o)
 .bss.buf.6782  0x00059f68        0xc libbb/lib.a(mode_string.o)
 .bss.username  0x00059f74        0x8 libbb/lib.a(procps.o)
 .bss.groupname
                0x00059f7c        0x8 libbb/lib.a(procps.o)
 .bss.passwd.6786
                0x00059f84        0x4 libbb/lib.a(bb_askpass.o)
 .bss           0x00059f88        0x1 /opt/toolchain_hisi_ipsec/arm-hsan-linux-uclibcgnueabi/bin/../lib/gcc/arm-hsan-linux-uclibcgnueabi/4.4.6/crtbegin.o
 .bss.optlist   0x00059f89        0xe shell/lib.a(ash.o)
 *(SORT(COMMON))
 *fill*         0x00059f97        0x1 00
 COMMON         0x00059f98      0x114 libbb/lib.a(error_msg_and_die.o)
                0x00059f98                die_jmp
                0x0005a0a8                die_sleep
 *fill*         0x0005a0ac        0x4 00
 COMMON         0x0005a0b0     0x1001 libbb/lib.a(messages.o)
                0x0005a0b0                bb_common_bufsiz1
 *fill*         0x0005b0b1        0x3 00
 COMMON         0x0005b0b4        0x4 libbb/lib.a(appletlib.o)
                0x0005b0b4                applet_name
 COMMON         0x0005b0b8        0x4 networking/lib.a(interface.o)
                0x0005b0b8                interface_opt_a
 COMMON         0x0005b0bc      0x110 networking/udhcp/lib.a(dhcpc.o)
                0x0005b0bc                g_acCmd
                0x0005b1bc                g_interface
 COMMON         0x0005b1cc        0x4 networking/udhcp/lib.a(dhcpd.o)
                0x0005b1cc                leases
 COMMON         0x0005b1d0      0x2f0 atpconfig/lib.a(traceroute6.o)
                0x0005b1d0                saddr
                0x0005b1ec                hopaddr
                0x0005b20c                verbose
                0x0005b210                hostname
                0x0005b214                tz
                0x0005b21c                ident
                0x0005b220                hoprttime
                0x0005b22c                options
                0x0005b230                icmp_sock
                0x0005b234                hophost
                0x0005b274                resptime
                0x0005b278                hoperrno
                0x0005b27c                packet
                0x0005b47c                whereto
                0x0005b498                sendbuff
                0x0005b49c                firsthop
                0x0005b4b8                sndsock
                0x0005b4bc                nflag
 COMMON         0x0005b4c0        0xc libbb/lib.a(getopt32.o)
                0x0005b4c0                option_mask32
                0x0005b4c4                opt_complementary
                0x0005b4c8                applet_long_options
 COMMON         0x0005b4cc        0x4 libbb/lib.a(pidfile.o)
                0x0005b4cc                wrote_pidfile
                0x0005b4d0                . = ALIGN ((. != 0x0)?0x4:0x1)
                0x0005b4d0                _bss_end__ = .
                0x0005b4d0                __bss_end__ = .
                0x0005b4d0                . = ALIGN (0x4)
                0x0005b4d0                . = ALIGN (0x4)
                0x0005b4d0                __end__ = .
                0x0005b4d0                _end = .
                0x0005b4d0                PROVIDE (end, .)
                0x0005b4d0                . = DATA_SEGMENT_END (.)

.stab
 *(SORT(.stab))

.stabstr
 *(SORT(.stabstr))

.stab.excl
 *(SORT(.stab.excl))

.stab.exclstr
 *(SORT(.stab.exclstr))

.stab.index
 *(SORT(.stab.index))

.stab.indexstr
 *(SORT(.stab.indexstr))

.comment        0x00000000       0x5b
 *(SORT(.comment))
 .comment       0x00000000       0x2e /home/luokunling/open-HG633/BR-R5-HG633HG658v2-20140408/output/host/usr/arm-unknown-linux-uclibcgnueabi/sysroot/usr/lib/crti.o
                                 0x2f (size before relaxing)
 .comment       0x0000002e       0x2d /opt/toolchain_hisi_ipsec/arm-hsan-linux-uclibcgnueabi/bin/../lib/gcc/arm-hsan-linux-uclibcgnueabi/4.4.6/crtbegin.o
                                 0x2e (size before relaxing)
 .comment       0x00000000       0x2e applets/built-in.o
 .comment       0x00000000       0x2e libbb/lib.a(appletlib.o)
 .comment       0x00000000       0x2e libbb/lib.a(bb_basename.o)
 .comment       0x00000000       0x2e libbb/lib.a(concat_path_file.o)
 .comment       0x00000000       0x2e libbb/lib.a(default_error_retval.o)
 .comment       0x00000000       0x2e libbb/lib.a(error_msg_and_die.o)
 .comment       0x00000000       0x2e libbb/lib.a(get_last_path_component.o)
 .comment       0x00000000       0x2e libbb/lib.a(last_char_is.o)
 .comment       0x00000000       0x2e libbb/lib.a(messages.o)
 .comment       0x00000000       0x2e libbb/lib.a(perror_msg.o)
 .comment       0x00000000       0x2e libbb/lib.a(verror_msg.o)
 .comment       0x00000000       0x2e libbb/lib.a(xfuncs.o)
 .comment       0x00000000       0x2e libbb/lib.a(xreadlink.o)
 .comment       0x00000000       0x2e libbb/lib.a(copyfd.o)
 .comment       0x00000000       0x2e libbb/lib.a(error_msg.o)
 .comment       0x00000000       0x2e libbb/lib.a(full_write.o)
 .comment       0x00000000       0x2e libbb/lib.a(perror_msg_and_die.o)
 .comment       0x00000000       0x2e libbb/lib.a(read.o)
 .comment       0x00000000       0x2e libbb/lib.a(safe_write.o)
 .comment       0x00000000       0x2e loginutils/lib.a(su.o)
 .comment       0x00000000       0x2e miscutils/lib.a(crond.o)
 .comment       0x00000000       0x2e miscutils/lib.a(crontab.o)
 .comment       0x00000000       0x2e miscutils/lib.a(makedevs.o)
 .comment       0x00000000       0x2e miscutils/lib.a(taskset.o)
 .comment       0x00000000       0x2e modutils/lib.a(insmod.o)
 .comment       0x00000000       0x2e networking/lib.a(ifconfig.o)
 .comment       0x00000000       0x2e networking/lib.a(interface.o)
 .comment       0x00000000       0x2e networking/lib.a(netstat.o)
 .comment       0x00000000       0x2e networking/lib.a(route.o)
 .comment       0x00000000       0x2e networking/lib.a(smuxctl.o)
 .comment       0x00000000       0x2e networking/lib.a(traceroute.o)
 .comment       0x00000000       0x2e networking/lib.a(vconfig.o)
 .comment       0x00000000       0x2e networking/lib.a(zcip.o)
 .comment       0x00000000       0x2e networking/udhcp/lib.a(dhcpc.o)
 .comment       0x00000000       0x2e networking/udhcp/lib.a(dhcpd.o)
 .comment       0x00000000       0x2e networking/udhcp/lib.a(files.o)
 .comment       0x00000000       0x2e networking/udhcp/lib.a(leases.o)
 .comment       0x00000000       0x2e networking/udhcp/lib.a(options.o)
 .comment       0x00000000       0x2e networking/udhcp/lib.a(packet.o)
 .comment       0x00000000       0x2e networking/udhcp/lib.a(script.o)
 .comment       0x00000000       0x2e networking/udhcp/lib.a(serverpacket.o)
 .comment       0x00000000       0x2e networking/udhcp/lib.a(signalpipe.o)
 .comment       0x00000000       0x2e networking/udhcp/lib.a(socket.o)
 .comment       0x00000000       0x2e networking/udhcp/lib.a(static_leases.o)
 .comment       0x00000000       0x2e networking/udhcp/lib.a(arpping.o)
 .comment       0x00000000       0x2e networking/udhcp/lib.a(clientpacket.o)
 .comment       0x00000000       0x2e networking/udhcp/lib.a(clientsocket.o)
 .comment       0x00000000       0x2e networking/udhcp/lib.a(common.o)
 .comment       0x00000000       0x2e procps/lib.a(kill.o)
 .comment       0x00000000       0x2e procps/lib.a(ps.o)
 .comment       0x00000000       0x2e procps/lib.a(renice.o)
 .comment       0x00000000       0x2e procps/lib.a(top.o)
 .comment       0x00000000       0x2e shell/lib.a(ash.o)
 .comment       0x00000000       0x2e util-linux/lib.a(mount.o)
 .comment       0x00000000       0x2e util-linux/lib.a(umount.o)
 .comment       0x00000000       0x2e atpconfig/lib.a(arp.o)
 .comment       0x00000000       0x2e atpconfig/lib.a(atpcommon.o)
 .comment       0x00000000       0x2e atpconfig/lib.a(ftpgetput.o)
 .comment       0x00000000       0x2e atpconfig/lib.a(gplgethostbyname.o)
 .comment       0x00000000       0x2e atpconfig/lib.a(ping.o)
 .comment       0x00000000       0x2e atpconfig/lib.a(traceroute6.o)
 .comment       0x00000000       0x2e atpconfig/lib.a(wget.o)
 .comment       0x00000000       0x2e archival/lib.a(tar.o)
 .comment       0x00000000       0x2e archival/libunarchive/lib.a(data_extract_all.o)
 .comment       0x00000000       0x2e archival/libunarchive/lib.a(data_extract_to_stdout.o)
 .comment       0x00000000       0x2e archival/libunarchive/lib.a(data_skip.o)
 .comment       0x00000000       0x2e archival/libunarchive/lib.a(decompress_bunzip2.o)
 .comment       0x00000000       0x2e archival/libunarchive/lib.a(decompress_uncompress.o)
 .comment       0x00000000       0x2e archival/libunarchive/lib.a(filter_accept_reject_list.o)
 .comment       0x00000000       0x2e archival/libunarchive/lib.a(find_list_entry.o)
 .comment       0x00000000       0x2e archival/libunarchive/lib.a(get_header_tar.o)
 .comment       0x00000000       0x2e archival/libunarchive/lib.a(get_header_tar_bz2.o)
 .comment       0x00000000       0x2e archival/libunarchive/lib.a(get_header_tar_gz.o)
 .comment       0x00000000       0x2e archival/libunarchive/lib.a(header_list.o)
 .comment       0x00000000       0x2e archival/libunarchive/lib.a(header_verbose_list.o)
 .comment       0x00000000       0x2e archival/libunarchive/lib.a(init_handle.o)
 .comment       0x00000000       0x2e archival/libunarchive/lib.a(open_transformer.o)
 .comment       0x00000000       0x2e archival/libunarchive/lib.a(seek_by_jump.o)
 .comment       0x00000000       0x2e archival/libunarchive/lib.a(seek_by_read.o)
 .comment       0x00000000       0x2e archival/libunarchive/lib.a(data_align.o)
 .comment       0x00000000       0x2e archival/libunarchive/lib.a(decompress_unzip.o)
 .comment       0x00000000       0x2e archival/libunarchive/lib.a(filter_accept_all.o)
 .comment       0x00000000       0x2e archival/libunarchive/lib.a(header_skip.o)
 .comment       0x00000000       0x2e console-tools/lib.a(setconsole.o)
 .comment       0x00000000       0x2e coreutils/lib.a(cat.o)
 .comment       0x00000000       0x2e coreutils/lib.a(chmod.o)
 .comment       0x00000000       0x2e coreutils/lib.a(cp.o)
 .comment       0x00000000       0x2e coreutils/lib.a(date.o)
 .comment       0x00000000       0x2e coreutils/lib.a(echo.o)
 .comment       0x00000000       0x2e coreutils/lib.a(ls.o)
 .comment       0x00000000       0x2e coreutils/lib.a(mkdir.o)
 .comment       0x00000000       0x2e coreutils/lib.a(mknod.o)
 .comment       0x00000000       0x2e coreutils/lib.a(mv.o)
 .comment       0x00000000       0x2e coreutils/lib.a(rm.o)
 .comment       0x00000000       0x2e coreutils/lib.a(sleep.o)
 .comment       0x00000000       0x2e coreutils/lib.a(test.o)
 .comment       0x00000000       0x2e coreutils/lib.a(usleep.o)
 .comment       0x00000000       0x2e coreutils/libcoreutils/lib.a(cp_mv_stat.o)
 .comment       0x00000000       0x2e coreutils/libcoreutils/lib.a(getopt_mk_fifo_nod.o)
 .comment       0x00000000       0x2e debianutils/lib.a(start_stop_daemon.o)
 .comment       0x00000000       0x2e editors/lib.a(awk.o)
 .comment       0x00000000       0x2e editors/lib.a(diff.o)
 .comment       0x00000000       0x2e editors/lib.a(sed.o)
 .comment       0x00000000       0x2e findutils/lib.a(grep.o)
 .comment       0x00000000       0x2e init/lib.a(halt.o)
 .comment       0x00000000       0x2e init/lib.a(init.o)
 .comment       0x00000000       0x2e libbb/lib.a(ask_confirmation.o)
 .comment       0x00000000       0x2e libbb/lib.a(bb_pwd.o)
 .comment       0x00000000       0x2e libbb/lib.a(bb_strtonum.o)
 .comment       0x00000000       0x2e libbb/lib.a(change_identity.o)
 .comment       0x00000000       0x2e libbb/lib.a(compare_string_array.o)
 .comment       0x00000000       0x2e libbb/lib.a(copy_file.o)
 .comment       0x00000000       0x2e libbb/lib.a(correct_password.o)
 .comment       0x00000000       0x2e libbb/lib.a(crc32.o)
 .comment       0x00000000       0x2e libbb/lib.a(create_icmp6_socket.o)
 .comment       0x00000000       0x2e libbb/lib.a(create_icmp_socket.o)
 .comment       0x00000000       0x2e libbb/lib.a(device_open.o)
 .comment       0x00000000       0x2e libbb/lib.a(execable.o)
 .comment       0x00000000       0x2e libbb/lib.a(fclose_nonstdin.o)
 .comment       0x00000000       0x2e libbb/lib.a(fflush_stdout_and_exit.o)
 .comment       0x00000000       0x2e libbb/lib.a(find_pid_by_name.o)
 .comment       0x00000000       0x2e libbb/lib.a(get_line_from_file.o)
 .comment       0x00000000       0x2e libbb/lib.a(getopt32.o)
 .comment       0x00000000       0x2e libbb/lib.a(herror_msg_and_die.o)
 .comment       0x00000000       0x2e libbb/lib.a(inet_common.o)
 .comment       0x00000000       0x2e libbb/lib.a(info_msg.o)
 .comment       0x00000000       0x2e libbb/lib.a(inode_hash.o)
 .comment       0x00000000       0x2e libbb/lib.a(lineedit.o)
 .comment       0x00000000       0x2e libbb/lib.a(llist.o)
 .comment       0x00000000       0x2e libbb/lib.a(make_directory.o)
 .comment       0x00000000       0x2e libbb/lib.a(makedev.o)
 .comment       0x00000000       0x2e libbb/lib.a(match_fstype.o)
 .comment       0x00000000       0x2e libbb/lib.a(mode_string.o)
 .comment       0x00000000       0x2e libbb/lib.a(mtab_file.o)
 .comment       0x00000000       0x2e libbb/lib.a(parse_mode.o)
 .comment       0x00000000       0x2e libbb/lib.a(perror_nomsg_and_die.o)
 .comment       0x00000000       0x2e libbb/lib.a(pidfile.o)
 .comment       0x00000000       0x2e libbb/lib.a(process_escape_sequence.o)
 .comment       0x00000000       0x2e libbb/lib.a(procps.o)
 .comment       0x00000000       0x2e libbb/lib.a(recursive_action.o)
 .comment       0x00000000       0x2e libbb/lib.a(remove_file.o)
 .comment       0x00000000       0x2e libbb/lib.a(run_shell.o)
 .comment       0x00000000       0x2e libbb/lib.a(safe_poll.o)
 .comment       0x00000000       0x2e libbb/lib.a(safe_strncpy.o)
 .comment       0x00000000       0x2e libbb/lib.a(setup_environment.o)
 .comment       0x00000000       0x2e libbb/lib.a(simplify_path.o)
 .comment       0x00000000       0x2e libbb/lib.a(skip_whitespace.o)
 .comment       0x00000000       0x2e libbb/lib.a(str_tolower.o)
 .comment       0x00000000       0x2e libbb/lib.a(time.o)
 .comment       0x00000000       0x2e libbb/lib.a(trim.o)
 .comment       0x00000000       0x2e libbb/lib.a(u_signal_names.o)
 .comment       0x00000000       0x2e libbb/lib.a(vfork_daemon_rexec.o)
 .comment       0x00000000       0x2e libbb/lib.a(wfopen.o)
 .comment       0x00000000       0x2e libbb/lib.a(xatonum.o)
 .comment       0x00000000       0x2e libbb/lib.a(xconnect.o)
 .comment       0x00000000       0x2e libbb/lib.a(xgetcwd.o)
 .comment       0x00000000       0x2e libbb/lib.a(xgethostbyname.o)
 .comment       0x00000000       0x2e libbb/lib.a(xregcomp.o)
 .comment       0x00000000       0x2e libbb/lib.a(bb_askpass.o)
 .comment       0x00000000       0x2e libbb/lib.a(concat_subpath_file.o)
 .comment       0x00000000       0x2e libpwdgrp/lib.a(uidgid_get.o)
 .comment       0x00000000       0x2e /opt/toolchain_hisi_ipsec/arm-hsan-linux-uclibcgnueabi/bin/../lib/gcc/arm-hsan-linux-uclibcgnueabi/4.4.6/libgcc.a(bpabi.o)
 .comment       0x00000000       0x2e /opt/toolchain_hisi_ipsec/arm-hsan-linux-uclibcgnueabi/bin/../lib/gcc/arm-hsan-linux-uclibcgnueabi/4.4.6/libgcc.a(_divdi3.o)
 .comment       0x00000000       0x2e /opt/toolchain_hisi_ipsec/arm-hsan-linux-uclibcgnueabi/bin/../lib/gcc/arm-hsan-linux-uclibcgnueabi/4.4.6/libgcc.a(_udivdi3.o)
 .comment       0x00000000       0x2e /home/luokunling/open-HG633/BR-R5-HG633HG658v2-20140408/output/host/usr/arm-unknown-linux-uclibcgnueabi/sysroot/usr/lib/uclibc_nonshared.a(atexit.os)
 .comment       0x00000000       0x2e /opt/toolchain_hisi_ipsec/arm-hsan-linux-uclibcgnueabi/bin/../lib/gcc/arm-hsan-linux-uclibcgnueabi/4.4.6/crtend.o
 .comment       0x00000000       0x2f /home/luokunling/open-HG633/BR-R5-HG633HG658v2-20140408/output/host/usr/arm-unknown-linux-uclibcgnueabi/sysroot/usr/lib/crtn.o

.ARM.attributes
                0x00000000       0x2d
 .ARM.attributes
                0x00000000       0x16 /home/luokunling/open-HG633/BR-R5-HG633HG658v2-20140408/output/host/usr/arm-unknown-linux-uclibcgnueabi/sysroot/usr/lib/crt1.o
 .ARM.attributes
                0x00000016       0x18 /home/luokunling/open-HG633/BR-R5-HG633HG658v2-20140408/output/host/usr/arm-unknown-linux-uclibcgnueabi/sysroot/usr/lib/crti.o
 .ARM.attributes
                0x0000002e       0x32 /opt/toolchain_hisi_ipsec/arm-hsan-linux-uclibcgnueabi/bin/../lib/gcc/arm-hsan-linux-uclibcgnueabi/4.4.6/crtbegin.o
 .ARM.attributes
                0x00000060       0x32 applets/built-in.o
 .ARM.attributes
                0x00000092       0x32 libbb/lib.a(appletlib.o)
 .ARM.attributes
                0x000000c4       0x32 libbb/lib.a(bb_basename.o)
 .ARM.attributes
                0x000000f6       0x32 libbb/lib.a(concat_path_file.o)
 .ARM.attributes
                0x00000128       0x32 libbb/lib.a(default_error_retval.o)
 .ARM.attributes
                0x0000015a       0x32 libbb/lib.a(error_msg_and_die.o)
 .ARM.attributes
                0x0000018c       0x32 libbb/lib.a(get_last_path_component.o)
 .ARM.attributes
                0x000001be       0x32 libbb/lib.a(last_char_is.o)
 .ARM.attributes
                0x000001f0       0x32 libbb/lib.a(messages.o)
 .ARM.attributes
                0x00000222       0x32 libbb/lib.a(perror_msg.o)
 .ARM.attributes
                0x00000254       0x32 libbb/lib.a(verror_msg.o)
 .ARM.attributes
                0x00000286       0x32 libbb/lib.a(xfuncs.o)
 .ARM.attributes
                0x000002b8       0x32 libbb/lib.a(xreadlink.o)
 .ARM.attributes
                0x000002ea       0x32 libbb/lib.a(copyfd.o)
 .ARM.attributes
                0x0000031c       0x32 libbb/lib.a(error_msg.o)
 .ARM.attributes
                0x0000034e       0x32 libbb/lib.a(full_write.o)
 .ARM.attributes
                0x00000380       0x32 libbb/lib.a(perror_msg_and_die.o)
 .ARM.attributes
                0x000003b2       0x32 libbb/lib.a(read.o)
 .ARM.attributes
                0x000003e4       0x32 libbb/lib.a(safe_write.o)
 .ARM.attributes
                0x00000416       0x32 loginutils/lib.a(su.o)
 .ARM.attributes
                0x00000448       0x32 miscutils/lib.a(crond.o)
 .ARM.attributes
                0x0000047a       0x32 miscutils/lib.a(crontab.o)
 .ARM.attributes
                0x000004ac       0x32 miscutils/lib.a(makedevs.o)
 .ARM.attributes
                0x000004de       0x32 miscutils/lib.a(taskset.o)
 .ARM.attributes
                0x00000510       0x32 modutils/lib.a(insmod.o)
 .ARM.attributes
                0x00000542       0x32 networking/lib.a(ifconfig.o)
 .ARM.attributes
                0x00000574       0x32 networking/lib.a(interface.o)
 .ARM.attributes
                0x000005a6       0x32 networking/lib.a(netstat.o)
 .ARM.attributes
                0x000005d8       0x32 networking/lib.a(route.o)
 .ARM.attributes
                0x0000060a       0x32 networking/lib.a(smuxctl.o)
 .ARM.attributes
                0x0000063c       0x32 networking/lib.a(traceroute.o)
 .ARM.attributes
                0x0000066e       0x32 networking/lib.a(vconfig.o)
 .ARM.attributes
                0x000006a0       0x32 networking/lib.a(zcip.o)
 .ARM.attributes
                0x000006d2       0x32 networking/udhcp/lib.a(dhcpc.o)
 .ARM.attributes
                0x00000704       0x32 networking/udhcp/lib.a(dhcpd.o)
 .ARM.attributes
                0x00000736       0x32 networking/udhcp/lib.a(files.o)
 .ARM.attributes
                0x00000768       0x32 networking/udhcp/lib.a(leases.o)
 .ARM.attributes
                0x0000079a       0x32 networking/udhcp/lib.a(options.o)
 .ARM.attributes
                0x000007cc       0x32 networking/udhcp/lib.a(packet.o)
 .ARM.attributes
                0x000007fe       0x32 networking/udhcp/lib.a(script.o)
 .ARM.attributes
                0x00000830       0x32 networking/udhcp/lib.a(serverpacket.o)
 .ARM.attributes
                0x00000862       0x32 networking/udhcp/lib.a(signalpipe.o)
 .ARM.attributes
                0x00000894       0x32 networking/udhcp/lib.a(socket.o)
 .ARM.attributes
                0x000008c6       0x32 networking/udhcp/lib.a(static_leases.o)
 .ARM.attributes
                0x000008f8       0x32 networking/udhcp/lib.a(arpping.o)
 .ARM.attributes
                0x0000092a       0x32 networking/udhcp/lib.a(clientpacket.o)
 .ARM.attributes
                0x0000095c       0x32 networking/udhcp/lib.a(clientsocket.o)
 .ARM.attributes
                0x0000098e       0x32 networking/udhcp/lib.a(common.o)
 .ARM.attributes
                0x000009c0       0x32 procps/lib.a(kill.o)
 .ARM.attributes
                0x000009f2       0x32 procps/lib.a(ps.o)
 .ARM.attributes
                0x00000a24       0x32 procps/lib.a(renice.o)
 .ARM.attributes
                0x00000a56       0x32 procps/lib.a(top.o)
 .ARM.attributes
                0x00000a88       0x32 shell/lib.a(ash.o)
 .ARM.attributes
                0x00000aba       0x32 util-linux/lib.a(mount.o)
 .ARM.attributes
                0x00000aec       0x32 util-linux/lib.a(umount.o)
 .ARM.attributes
                0x00000b1e       0x32 atpconfig/lib.a(arp.o)
 .ARM.attributes
                0x00000b50       0x32 atpconfig/lib.a(atpcommon.o)
 .ARM.attributes
                0x00000b82       0x32 atpconfig/lib.a(ftpgetput.o)
 .ARM.attributes
                0x00000bb4       0x32 atpconfig/lib.a(gplgethostbyname.o)
 .ARM.attributes
                0x00000be6       0x32 atpconfig/lib.a(ping.o)
 .ARM.attributes
                0x00000c18       0x32 atpconfig/lib.a(traceroute6.o)
 .ARM.attributes
                0x00000c4a       0x32 atpconfig/lib.a(wget.o)
 .ARM.attributes
                0x00000c7c       0x32 archival/lib.a(tar.o)
 .ARM.attributes
                0x00000cae       0x32 archival/libunarchive/lib.a(data_extract_all.o)
 .ARM.attributes
                0x00000ce0       0x32 archival/libunarchive/lib.a(data_extract_to_stdout.o)
 .ARM.attributes
                0x00000d12       0x32 archival/libunarchive/lib.a(data_skip.o)
 .ARM.attributes
                0x00000d44       0x32 archival/libunarchive/lib.a(decompress_bunzip2.o)
 .ARM.attributes
                0x00000d76       0x32 archival/libunarchive/lib.a(decompress_uncompress.o)
 .ARM.attributes
                0x00000da8       0x32 archival/libunarchive/lib.a(filter_accept_reject_list.o)
 .ARM.attributes
                0x00000dda       0x32 archival/libunarchive/lib.a(find_list_entry.o)
 .ARM.attributes
                0x00000e0c       0x32 archival/libunarchive/lib.a(get_header_tar.o)
 .ARM.attributes
                0x00000e3e       0x32 archival/libunarchive/lib.a(get_header_tar_bz2.o)
 .ARM.attributes
                0x00000e70       0x32 archival/libunarchive/lib.a(get_header_tar_gz.o)
 .ARM.attributes
                0x00000ea2       0x32 archival/libunarchive/lib.a(header_list.o)
 .ARM.attributes
                0x00000ed4       0x32 archival/libunarchive/lib.a(header_verbose_list.o)
 .ARM.attributes
                0x00000f06       0x32 archival/libunarchive/lib.a(init_handle.o)
 .ARM.attributes
                0x00000f38       0x32 archival/libunarchive/lib.a(open_transformer.o)
 .ARM.attributes
                0x00000f6a       0x32 archival/libunarchive/lib.a(seek_by_jump.o)
 .ARM.attributes
                0x00000f9c       0x32 archival/libunarchive/lib.a(seek_by_read.o)
 .ARM.attributes
                0x00000fce       0x32 archival/libunarchive/lib.a(data_align.o)
 .ARM.attributes
                0x00001000       0x32 archival/libunarchive/lib.a(decompress_unzip.o)
 .ARM.attributes
                0x00001032       0x32 archival/libunarchive/lib.a(filter_accept_all.o)
 .ARM.attributes
                0x00001064       0x32 archival/libunarchive/lib.a(header_skip.o)
 .ARM.attributes
                0x00001096       0x32 console-tools/lib.a(setconsole.o)
 .ARM.attributes
                0x000010c8       0x32 coreutils/lib.a(cat.o)
 .ARM.attributes
                0x000010fa       0x32 coreutils/lib.a(chmod.o)
 .ARM.attributes
                0x0000112c       0x32 coreutils/lib.a(cp.o)
 .ARM.attributes
                0x0000115e       0x32 coreutils/lib.a(date.o)
 .ARM.attributes
                0x00001190       0x32 coreutils/lib.a(echo.o)
 .ARM.attributes
                0x000011c2       0x32 coreutils/lib.a(ls.o)
 .ARM.attributes
                0x000011f4       0x32 coreutils/lib.a(mkdir.o)
 .ARM.attributes
                0x00001226       0x32 coreutils/lib.a(mknod.o)
 .ARM.attributes
                0x00001258       0x32 coreutils/lib.a(mv.o)
 .ARM.attributes
                0x0000128a       0x32 coreutils/lib.a(rm.o)
 .ARM.attributes
                0x000012bc       0x32 coreutils/lib.a(sleep.o)
 .ARM.attributes
                0x000012ee       0x32 coreutils/lib.a(test.o)
 .ARM.attributes
                0x00001320       0x32 coreutils/lib.a(usleep.o)
 .ARM.attributes
                0x00001352       0x32 coreutils/libcoreutils/lib.a(cp_mv_stat.o)
 .ARM.attributes
                0x00001384       0x32 coreutils/libcoreutils/lib.a(getopt_mk_fifo_nod.o)
 .ARM.attributes
                0x000013b6       0x32 debianutils/lib.a(start_stop_daemon.o)
 .ARM.attributes
                0x000013e8       0x32 editors/lib.a(awk.o)
 .ARM.attributes
                0x0000141a       0x32 editors/lib.a(diff.o)
 .ARM.attributes
                0x0000144c       0x32 editors/lib.a(sed.o)
 .ARM.attributes
                0x0000147e       0x32 findutils/lib.a(grep.o)
 .ARM.attributes
                0x000014b0       0x32 init/lib.a(halt.o)
 .ARM.attributes
                0x000014e2       0x32 init/lib.a(init.o)
 .ARM.attributes
                0x00001514       0x32 libbb/lib.a(ask_confirmation.o)
 .ARM.attributes
                0x00001546       0x32 libbb/lib.a(bb_pwd.o)
 .ARM.attributes
                0x00001578       0x32 libbb/lib.a(bb_strtonum.o)
 .ARM.attributes
                0x000015aa       0x32 libbb/lib.a(change_identity.o)
 .ARM.attributes
                0x000015dc       0x32 libbb/lib.a(compare_string_array.o)
 .ARM.attributes
                0x0000160e       0x32 libbb/lib.a(copy_file.o)
 .ARM.attributes
                0x00001640       0x32 libbb/lib.a(correct_password.o)
 .ARM.attributes
                0x00001672       0x32 libbb/lib.a(crc32.o)
 .ARM.attributes
                0x000016a4       0x32 libbb/lib.a(create_icmp6_socket.o)
 .ARM.attributes
                0x000016d6       0x32 libbb/lib.a(create_icmp_socket.o)
 .ARM.attributes
                0x00001708       0x32 libbb/lib.a(device_open.o)
 .ARM.attributes
                0x0000173a       0x32 libbb/lib.a(execable.o)
 .ARM.attributes
                0x0000176c       0x32 libbb/lib.a(fclose_nonstdin.o)
 .ARM.attributes
                0x0000179e       0x32 libbb/lib.a(fflush_stdout_and_exit.o)
 .ARM.attributes
                0x000017d0       0x32 libbb/lib.a(find_pid_by_name.o)
 .ARM.attributes
                0x00001802       0x32 libbb/lib.a(get_line_from_file.o)
 .ARM.attributes
                0x00001834       0x32 libbb/lib.a(getopt32.o)
 .ARM.attributes
                0x00001866       0x32 libbb/lib.a(herror_msg_and_die.o)
 .ARM.attributes
                0x00001898       0x32 libbb/lib.a(inet_common.o)
 .ARM.attributes
                0x000018ca       0x32 libbb/lib.a(info_msg.o)
 .ARM.attributes
                0x000018fc       0x32 libbb/lib.a(inode_hash.o)
 .ARM.attributes
                0x0000192e       0x32 libbb/lib.a(lineedit.o)
 .ARM.attributes
                0x00001960       0x32 libbb/lib.a(llist.o)
 .ARM.attributes
                0x00001992       0x32 libbb/lib.a(make_directory.o)
 .ARM.attributes
                0x000019c4       0x32 libbb/lib.a(makedev.o)
 .ARM.attributes
                0x000019f6       0x32 libbb/lib.a(match_fstype.o)
 .ARM.attributes
                0x00001a28       0x32 libbb/lib.a(mode_string.o)
 .ARM.attributes
                0x00001a5a       0x32 libbb/lib.a(mtab_file.o)
 .ARM.attributes
                0x00001a8c       0x32 libbb/lib.a(parse_mode.o)
 .ARM.attributes
                0x00001abe       0x32 libbb/lib.a(perror_nomsg_and_die.o)
 .ARM.attributes
                0x00001af0       0x32 libbb/lib.a(pidfile.o)
 .ARM.attributes
                0x00001b22       0x32 libbb/lib.a(process_escape_sequence.o)
 .ARM.attributes
                0x00001b54       0x32 libbb/lib.a(procps.o)
 .ARM.attributes
                0x00001b86       0x32 libbb/lib.a(recursive_action.o)
 .ARM.attributes
                0x00001bb8       0x32 libbb/lib.a(remove_file.o)
 .ARM.attributes
                0x00001bea       0x32 libbb/lib.a(run_shell.o)
 .ARM.attributes
                0x00001c1c       0x32 libbb/lib.a(safe_poll.o)
 .ARM.attributes
                0x00001c4e       0x32 libbb/lib.a(safe_strncpy.o)
 .ARM.attributes
                0x00001c80       0x32 libbb/lib.a(setup_environment.o)
 .ARM.attributes
                0x00001cb2       0x32 libbb/lib.a(simplify_path.o)
 .ARM.attributes
                0x00001ce4       0x32 libbb/lib.a(skip_whitespace.o)
 .ARM.attributes
                0x00001d16       0x32 libbb/lib.a(str_tolower.o)
 .ARM.attributes
                0x00001d48       0x32 libbb/lib.a(time.o)
 .ARM.attributes
                0x00001d7a       0x32 libbb/lib.a(trim.o)
 .ARM.attributes
                0x00001dac       0x32 libbb/lib.a(u_signal_names.o)
 .ARM.attributes
                0x00001dde       0x32 libbb/lib.a(vfork_daemon_rexec.o)
 .ARM.attributes
                0x00001e10       0x32 libbb/lib.a(wfopen.o)
 .ARM.attributes
                0x00001e42       0x32 libbb/lib.a(xatonum.o)
 .ARM.attributes
                0x00001e74       0x32 libbb/lib.a(xconnect.o)
 .ARM.attributes
                0x00001ea6       0x32 libbb/lib.a(xgetcwd.o)
 .ARM.attributes
                0x00001ed8       0x32 libbb/lib.a(xgethostbyname.o)
 .ARM.attributes
                0x00001f0a       0x32 libbb/lib.a(xregcomp.o)
 .ARM.attributes
                0x00001f3c       0x32 libbb/lib.a(bb_askpass.o)
 .ARM.attributes
                0x00001f6e       0x32 libbb/lib.a(concat_subpath_file.o)
 .ARM.attributes
                0x00001fa0       0x32 libpwdgrp/lib.a(uidgid_get.o)
 .ARM.attributes
                0x00001fd2       0x18 /opt/toolchain_hisi_ipsec/arm-hsan-linux-uclibcgnueabi/bin/../lib/gcc/arm-hsan-linux-uclibcgnueabi/4.4.6/libgcc.a(_udivsi3.o)
 .ARM.attributes
                0x00001fea       0x18 /opt/toolchain_hisi_ipsec/arm-hsan-linux-uclibcgnueabi/bin/../lib/gcc/arm-hsan-linux-uclibcgnueabi/4.4.6/libgcc.a(_divsi3.o)
 .ARM.attributes
                0x00002002       0x18 /opt/toolchain_hisi_ipsec/arm-hsan-linux-uclibcgnueabi/bin/../lib/gcc/arm-hsan-linux-uclibcgnueabi/4.4.6/libgcc.a(_lshrdi3.o)
 .ARM.attributes
                0x0000201a       0x18 /opt/toolchain_hisi_ipsec/arm-hsan-linux-uclibcgnueabi/bin/../lib/gcc/arm-hsan-linux-uclibcgnueabi/4.4.6/libgcc.a(_ashldi3.o)
 .ARM.attributes
                0x00002032       0x18 /opt/toolchain_hisi_ipsec/arm-hsan-linux-uclibcgnueabi/bin/../lib/gcc/arm-hsan-linux-uclibcgnueabi/4.4.6/libgcc.a(_arm_addsubdf3.o)
 .ARM.attributes
                0x0000204a       0x18 /opt/toolchain_hisi_ipsec/arm-hsan-linux-uclibcgnueabi/bin/../lib/gcc/arm-hsan-linux-uclibcgnueabi/4.4.6/libgcc.a(_arm_muldivdf3.o)
 .ARM.attributes
                0x00002062       0x18 /opt/toolchain_hisi_ipsec/arm-hsan-linux-uclibcgnueabi/bin/../lib/gcc/arm-hsan-linux-uclibcgnueabi/4.4.6/libgcc.a(_arm_cmpdf2.o)
 .ARM.attributes
                0x0000207a       0x18 /opt/toolchain_hisi_ipsec/arm-hsan-linux-uclibcgnueabi/bin/../lib/gcc/arm-hsan-linux-uclibcgnueabi/4.4.6/libgcc.a(_arm_fixdfsi.o)
 .ARM.attributes
                0x00002092       0x18 /opt/toolchain_hisi_ipsec/arm-hsan-linux-uclibcgnueabi/bin/../lib/gcc/arm-hsan-linux-uclibcgnueabi/4.4.6/libgcc.a(_arm_fixunsdfsi.o)
 .ARM.attributes
                0x000020aa       0x18 /opt/toolchain_hisi_ipsec/arm-hsan-linux-uclibcgnueabi/bin/../lib/gcc/arm-hsan-linux-uclibcgnueabi/4.4.6/libgcc.a(_aeabi_ldivmod.o)
 .ARM.attributes
                0x000020c2       0x18 /opt/toolchain_hisi_ipsec/arm-hsan-linux-uclibcgnueabi/bin/../lib/gcc/arm-hsan-linux-uclibcgnueabi/4.4.6/libgcc.a(_aeabi_uldivmod.o)
 .ARM.attributes
                0x000020da       0x18 /opt/toolchain_hisi_ipsec/arm-hsan-linux-uclibcgnueabi/bin/../lib/gcc/arm-hsan-linux-uclibcgnueabi/4.4.6/libgcc.a(_dvmd_lnx.o)
 .ARM.attributes
                0x000020f2       0x32 /opt/toolchain_hisi_ipsec/arm-hsan-linux-uclibcgnueabi/bin/../lib/gcc/arm-hsan-linux-uclibcgnueabi/4.4.6/libgcc.a(bpabi.o)
 .ARM.attributes
                0x00002124       0x32 /opt/toolchain_hisi_ipsec/arm-hsan-linux-uclibcgnueabi/bin/../lib/gcc/arm-hsan-linux-uclibcgnueabi/4.4.6/libgcc.a(_divdi3.o)
 .ARM.attributes
                0x00002156       0x32 /opt/toolchain_hisi_ipsec/arm-hsan-linux-uclibcgnueabi/bin/../lib/gcc/arm-hsan-linux-uclibcgnueabi/4.4.6/libgcc.a(_udivdi3.o)
 .ARM.attributes
                0x00002188       0x18 /opt/toolchain_hisi_ipsec/arm-hsan-linux-uclibcgnueabi/bin/../lib/gcc/arm-hsan-linux-uclibcgnueabi/4.4.6/libgcc.a(_clzsi2.o)
 .ARM.attributes
                0x000021a0       0x32 /home/luokunling/open-HG633/BR-R5-HG633HG658v2-20140408/output/host/usr/arm-unknown-linux-uclibcgnueabi/sysroot/usr/lib/uclibc_nonshared.a(atexit.os)
 .ARM.attributes
                0x000021d2       0x32 /opt/toolchain_hisi_ipsec/arm-hsan-linux-uclibcgnueabi/bin/../lib/gcc/arm-hsan-linux-uclibcgnueabi/4.4.6/crtend.o
 .ARM.attributes
                0x00002204       0x16 /home/luokunling/open-HG633/BR-R5-HG633HG658v2-20140408/output/host/usr/arm-unknown-linux-uclibcgnueabi/sysroot/usr/lib/crtn.o

.debug
 *(SORT(.debug))

.line
 *(SORT(.line))

.debug_srcinfo
 *(SORT(.debug_srcinfo))

.debug_sfnames
 *(SORT(.debug_sfnames))

.debug_aranges  0x00000000      0x200
 *(SORT(.debug_aranges))
 .debug_aranges
                0x00000000       0x20 /opt/toolchain_hisi_ipsec/arm-hsan-linux-uclibcgnueabi/bin/../lib/gcc/arm-hsan-linux-uclibcgnueabi/4.4.6/libgcc.a(_udivsi3.o)
 .debug_aranges
                0x00000020       0x20 /opt/toolchain_hisi_ipsec/arm-hsan-linux-uclibcgnueabi/bin/../lib/gcc/arm-hsan-linux-uclibcgnueabi/4.4.6/libgcc.a(_divsi3.o)
 .debug_aranges
                0x00000040       0x20 /opt/toolchain_hisi_ipsec/arm-hsan-linux-uclibcgnueabi/bin/../lib/gcc/arm-hsan-linux-uclibcgnueabi/4.4.6/libgcc.a(_lshrdi3.o)
 .debug_aranges
                0x00000060       0x20 /opt/toolchain_hisi_ipsec/arm-hsan-linux-uclibcgnueabi/bin/../lib/gcc/arm-hsan-linux-uclibcgnueabi/4.4.6/libgcc.a(_ashldi3.o)
 .debug_aranges
                0x00000080       0x20 /opt/toolchain_hisi_ipsec/arm-hsan-linux-uclibcgnueabi/bin/../lib/gcc/arm-hsan-linux-uclibcgnueabi/4.4.6/libgcc.a(_arm_addsubdf3.o)
 .debug_aranges
                0x000000a0       0x20 /opt/toolchain_hisi_ipsec/arm-hsan-linux-uclibcgnueabi/bin/../lib/gcc/arm-hsan-linux-uclibcgnueabi/4.4.6/libgcc.a(_arm_muldivdf3.o)
 .debug_aranges
                0x000000c0       0x20 /opt/toolchain_hisi_ipsec/arm-hsan-linux-uclibcgnueabi/bin/../lib/gcc/arm-hsan-linux-uclibcgnueabi/4.4.6/libgcc.a(_arm_cmpdf2.o)
 .debug_aranges
                0x000000e0       0x20 /opt/toolchain_hisi_ipsec/arm-hsan-linux-uclibcgnueabi/bin/../lib/gcc/arm-hsan-linux-uclibcgnueabi/4.4.6/libgcc.a(_arm_fixdfsi.o)
 .debug_aranges
                0x00000100       0x20 /opt/toolchain_hisi_ipsec/arm-hsan-linux-uclibcgnueabi/bin/../lib/gcc/arm-hsan-linux-uclibcgnueabi/4.4.6/libgcc.a(_arm_fixunsdfsi.o)
 .debug_aranges
                0x00000120       0x20 /opt/toolchain_hisi_ipsec/arm-hsan-linux-uclibcgnueabi/bin/../lib/gcc/arm-hsan-linux-uclibcgnueabi/4.4.6/libgcc.a(_aeabi_ldivmod.o)
 .debug_aranges
                0x00000140       0x20 /opt/toolchain_hisi_ipsec/arm-hsan-linux-uclibcgnueabi/bin/../lib/gcc/arm-hsan-linux-uclibcgnueabi/4.4.6/libgcc.a(_aeabi_uldivmod.o)
 .debug_aranges
                0x00000160       0x20 /opt/toolchain_hisi_ipsec/arm-hsan-linux-uclibcgnueabi/bin/../lib/gcc/arm-hsan-linux-uclibcgnueabi/4.4.6/libgcc.a(_dvmd_lnx.o)
 .debug_aranges
                0x00000180       0x20 /opt/toolchain_hisi_ipsec/arm-hsan-linux-uclibcgnueabi/bin/../lib/gcc/arm-hsan-linux-uclibcgnueabi/4.4.6/libgcc.a(_clzsi2.o)
 .debug_aranges
                0x000001a0       0x20 /opt/toolchain_hisi_ipsec/arm-hsan-linux-uclibcgnueabi/bin/../lib/gcc/arm-hsan-linux-uclibcgnueabi/4.4.6/libgcc.a(bpabi.o)
 .debug_aranges
                0x000001c0       0x20 /opt/toolchain_hisi_ipsec/arm-hsan-linux-uclibcgnueabi/bin/../lib/gcc/arm-hsan-linux-uclibcgnueabi/4.4.6/libgcc.a(_divdi3.o)
 .debug_aranges
                0x000001e0       0x20 /opt/toolchain_hisi_ipsec/arm-hsan-linux-uclibcgnueabi/bin/../lib/gcc/arm-hsan-linux-uclibcgnueabi/4.4.6/libgcc.a(_udivdi3.o)

.debug_pubnames
                0x00000000       0x84
 *(SORT(.debug_pubnames))
 .debug_pubnames
                0x00000000       0x45 /opt/toolchain_hisi_ipsec/arm-hsan-linux-uclibcgnueabi/bin/../lib/gcc/arm-hsan-linux-uclibcgnueabi/4.4.6/libgcc.a(bpabi.o)
 .debug_pubnames
                0x00000045       0x1f /opt/toolchain_hisi_ipsec/arm-hsan-linux-uclibcgnueabi/bin/../lib/gcc/arm-hsan-linux-uclibcgnueabi/4.4.6/libgcc.a(_divdi3.o)
 .debug_pubnames
                0x00000064       0x20 /opt/toolchain_hisi_ipsec/arm-hsan-linux-uclibcgnueabi/bin/../lib/gcc/arm-hsan-linux-uclibcgnueabi/4.4.6/libgcc.a(_udivdi3.o)

.debug_info     0x00000000     0x1bab
 *(SORT(.debug_info) SORT(.gnu.linkonce.wi.*))
 .debug_info    0x00000000      0x12d /opt/toolchain_hisi_ipsec/arm-hsan-linux-uclibcgnueabi/bin/../lib/gcc/arm-hsan-linux-uclibcgnueabi/4.4.6/libgcc.a(_udivsi3.o)
 .debug_info    0x0000012d      0x12d /opt/toolchain_hisi_ipsec/arm-hsan-linux-uclibcgnueabi/bin/../lib/gcc/arm-hsan-linux-uclibcgnueabi/4.4.6/libgcc.a(_divsi3.o)
 .debug_info    0x0000025a      0x12d /opt/toolchain_hisi_ipsec/arm-hsan-linux-uclibcgnueabi/bin/../lib/gcc/arm-hsan-linux-uclibcgnueabi/4.4.6/libgcc.a(_lshrdi3.o)
 .debug_info    0x00000387      0x12d /opt/toolchain_hisi_ipsec/arm-hsan-linux-uclibcgnueabi/bin/../lib/gcc/arm-hsan-linux-uclibcgnueabi/4.4.6/libgcc.a(_ashldi3.o)
 .debug_info    0x000004b4      0x12c /opt/toolchain_hisi_ipsec/arm-hsan-linux-uclibcgnueabi/bin/../lib/gcc/arm-hsan-linux-uclibcgnueabi/4.4.6/libgcc.a(_arm_addsubdf3.o)
 .debug_info    0x000005e0      0x12c /opt/toolchain_hisi_ipsec/arm-hsan-linux-uclibcgnueabi/bin/../lib/gcc/arm-hsan-linux-uclibcgnueabi/4.4.6/libgcc.a(_arm_muldivdf3.o)
 .debug_info    0x0000070c      0x12c /opt/toolchain_hisi_ipsec/arm-hsan-linux-uclibcgnueabi/bin/../lib/gcc/arm-hsan-linux-uclibcgnueabi/4.4.6/libgcc.a(_arm_cmpdf2.o)
 .debug_info    0x00000838      0x12c /opt/toolchain_hisi_ipsec/arm-hsan-linux-uclibcgnueabi/bin/../lib/gcc/arm-hsan-linux-uclibcgnueabi/4.4.6/libgcc.a(_arm_fixdfsi.o)
 .debug_info    0x00000964      0x12c /opt/toolchain_hisi_ipsec/arm-hsan-linux-uclibcgnueabi/bin/../lib/gcc/arm-hsan-linux-uclibcgnueabi/4.4.6/libgcc.a(_arm_fixunsdfsi.o)
 .debug_info    0x00000a90      0x127 /opt/toolchain_hisi_ipsec/arm-hsan-linux-uclibcgnueabi/bin/../lib/gcc/arm-hsan-linux-uclibcgnueabi/4.4.6/libgcc.a(_aeabi_ldivmod.o)
 .debug_info    0x00000bb7      0x127 /opt/toolchain_hisi_ipsec/arm-hsan-linux-uclibcgnueabi/bin/../lib/gcc/arm-hsan-linux-uclibcgnueabi/4.4.6/libgcc.a(_aeabi_uldivmod.o)
 .debug_info    0x00000cde      0x12d /opt/toolchain_hisi_ipsec/arm-hsan-linux-uclibcgnueabi/bin/../lib/gcc/arm-hsan-linux-uclibcgnueabi/4.4.6/libgcc.a(_dvmd_lnx.o)
 .debug_info    0x00000e0b       0xde /opt/toolchain_hisi_ipsec/arm-hsan-linux-uclibcgnueabi/bin/../lib/gcc/arm-hsan-linux-uclibcgnueabi/4.4.6/libgcc.a(bpabi.o)
 .debug_info    0x00000ee9      0x5e8 /opt/toolchain_hisi_ipsec/arm-hsan-linux-uclibcgnueabi/bin/../lib/gcc/arm-hsan-linux-uclibcgnueabi/4.4.6/libgcc.a(_divdi3.o)
 .debug_info    0x000014d1      0x5ad /opt/toolchain_hisi_ipsec/arm-hsan-linux-uclibcgnueabi/bin/../lib/gcc/arm-hsan-linux-uclibcgnueabi/4.4.6/libgcc.a(_udivdi3.o)
 .debug_info    0x00001a7e      0x12d /opt/toolchain_hisi_ipsec/arm-hsan-linux-uclibcgnueabi/bin/../lib/gcc/arm-hsan-linux-uclibcgnueabi/4.4.6/libgcc.a(_clzsi2.o)

.debug_abbrev   0x00000000      0x440
 *(SORT(.debug_abbrev))
 .debug_abbrev  0x00000000       0x14 /opt/toolchain_hisi_ipsec/arm-hsan-linux-uclibcgnueabi/bin/../lib/gcc/arm-hsan-linux-uclibcgnueabi/4.4.6/libgcc.a(_udivsi3.o)
 .debug_abbrev  0x00000014       0x14 /opt/toolchain_hisi_ipsec/arm-hsan-linux-uclibcgnueabi/bin/../lib/gcc/arm-hsan-linux-uclibcgnueabi/4.4.6/libgcc.a(_divsi3.o)
 .debug_abbrev  0x00000028       0x14 /opt/toolchain_hisi_ipsec/arm-hsan-linux-uclibcgnueabi/bin/../lib/gcc/arm-hsan-linux-uclibcgnueabi/4.4.6/libgcc.a(_lshrdi3.o)
 .debug_abbrev  0x0000003c       0x14 /opt/toolchain_hisi_ipsec/arm-hsan-linux-uclibcgnueabi/bin/../lib/gcc/arm-hsan-linux-uclibcgnueabi/4.4.6/libgcc.a(_ashldi3.o)
 .debug_abbrev  0x00000050       0x14 /opt/toolchain_hisi_ipsec/arm-hsan-linux-uclibcgnueabi/bin/../lib/gcc/arm-hsan-linux-uclibcgnueabi/4.4.6/libgcc.a(_arm_addsubdf3.o)
 .debug_abbrev  0x00000064       0x14 /opt/toolchain_hisi_ipsec/arm-hsan-linux-uclibcgnueabi/bin/../lib/gcc/arm-hsan-linux-uclibcgnueabi/4.4.6/libgcc.a(_arm_muldivdf3.o)
 .debug_abbrev  0x00000078       0x14 /opt/toolchain_hisi_ipsec/arm-hsan-linux-uclibcgnueabi/bin/../lib/gcc/arm-hsan-linux-uclibcgnueabi/4.4.6/libgcc.a(_arm_cmpdf2.o)
 .debug_abbrev  0x0000008c       0x14 /opt/toolchain_hisi_ipsec/arm-hsan-linux-uclibcgnueabi/bin/../lib/gcc/arm-hsan-linux-uclibcgnueabi/4.4.6/libgcc.a(_arm_fixdfsi.o)
 .debug_abbrev  0x000000a0       0x14 /opt/toolchain_hisi_ipsec/arm-hsan-linux-uclibcgnueabi/bin/../lib/gcc/arm-hsan-linux-uclibcgnueabi/4.4.6/libgcc.a(_arm_fixunsdfsi.o)
 .debug_abbrev  0x000000b4       0x14 /opt/toolchain_hisi_ipsec/arm-hsan-linux-uclibcgnueabi/bin/../lib/gcc/arm-hsan-linux-uclibcgnueabi/4.4.6/libgcc.a(_aeabi_ldivmod.o)
 .debug_abbrev  0x000000c8       0x14 /opt/toolchain_hisi_ipsec/arm-hsan-linux-uclibcgnueabi/bin/../lib/gcc/arm-hsan-linux-uclibcgnueabi/4.4.6/libgcc.a(_aeabi_uldivmod.o)
 .debug_abbrev  0x000000dc       0x14 /opt/toolchain_hisi_ipsec/arm-hsan-linux-uclibcgnueabi/bin/../lib/gcc/arm-hsan-linux-uclibcgnueabi/4.4.6/libgcc.a(_dvmd_lnx.o)
 .debug_abbrev  0x000000f0       0x6a /opt/toolchain_hisi_ipsec/arm-hsan-linux-uclibcgnueabi/bin/../lib/gcc/arm-hsan-linux-uclibcgnueabi/4.4.6/libgcc.a(bpabi.o)
 .debug_abbrev  0x0000015a      0x178 /opt/toolchain_hisi_ipsec/arm-hsan-linux-uclibcgnueabi/bin/../lib/gcc/arm-hsan-linux-uclibcgnueabi/4.4.6/libgcc.a(_divdi3.o)
 .debug_abbrev  0x000002d2      0x15a /opt/toolchain_hisi_ipsec/arm-hsan-linux-uclibcgnueabi/bin/../lib/gcc/arm-hsan-linux-uclibcgnueabi/4.4.6/libgcc.a(_udivdi3.o)
 .debug_abbrev  0x0000042c       0x14 /opt/toolchain_hisi_ipsec/arm-hsan-linux-uclibcgnueabi/bin/../lib/gcc/arm-hsan-linux-uclibcgnueabi/4.4.6/libgcc.a(_clzsi2.o)

.debug_line     0x00000000      0xe2d
 *(SORT(.debug_line))
 .debug_line    0x00000000       0xcc /opt/toolchain_hisi_ipsec/arm-hsan-linux-uclibcgnueabi/bin/../lib/gcc/arm-hsan-linux-uclibcgnueabi/4.4.6/libgcc.a(_udivsi3.o)
 .debug_line    0x000000cc       0xd8 /opt/toolchain_hisi_ipsec/arm-hsan-linux-uclibcgnueabi/bin/../lib/gcc/arm-hsan-linux-uclibcgnueabi/4.4.6/libgcc.a(_divsi3.o)
 .debug_line    0x000001a4       0xab /opt/toolchain_hisi_ipsec/arm-hsan-linux-uclibcgnueabi/bin/../lib/gcc/arm-hsan-linux-uclibcgnueabi/4.4.6/libgcc.a(_lshrdi3.o)
 .debug_line    0x0000024f       0xab /opt/toolchain_hisi_ipsec/arm-hsan-linux-uclibcgnueabi/bin/../lib/gcc/arm-hsan-linux-uclibcgnueabi/4.4.6/libgcc.a(_ashldi3.o)
 .debug_line    0x000002fa      0x1aa /opt/toolchain_hisi_ipsec/arm-hsan-linux-uclibcgnueabi/bin/../lib/gcc/arm-hsan-linux-uclibcgnueabi/4.4.6/libgcc.a(_arm_addsubdf3.o)
 .debug_line    0x000004a4      0x1c2 /opt/toolchain_hisi_ipsec/arm-hsan-linux-uclibcgnueabi/bin/../lib/gcc/arm-hsan-linux-uclibcgnueabi/4.4.6/libgcc.a(_arm_muldivdf3.o)
 .debug_line    0x00000666       0xf0 /opt/toolchain_hisi_ipsec/arm-hsan-linux-uclibcgnueabi/bin/../lib/gcc/arm-hsan-linux-uclibcgnueabi/4.4.6/libgcc.a(_arm_cmpdf2.o)
 .debug_line    0x00000756       0xba /opt/toolchain_hisi_ipsec/arm-hsan-linux-uclibcgnueabi/bin/../lib/gcc/arm-hsan-linux-uclibcgnueabi/4.4.6/libgcc.a(_arm_fixdfsi.o)
 .debug_line    0x00000810       0xb8 /opt/toolchain_hisi_ipsec/arm-hsan-linux-uclibcgnueabi/bin/../lib/gcc/arm-hsan-linux-uclibcgnueabi/4.4.6/libgcc.a(_arm_fixunsdfsi.o)
 .debug_line    0x000008c8       0xa5 /opt/toolchain_hisi_ipsec/arm-hsan-linux-uclibcgnueabi/bin/../lib/gcc/arm-hsan-linux-uclibcgnueabi/4.4.6/libgcc.a(_aeabi_ldivmod.o)
 .debug_line    0x0000096d       0xa5 /opt/toolchain_hisi_ipsec/arm-hsan-linux-uclibcgnueabi/bin/../lib/gcc/arm-hsan-linux-uclibcgnueabi/4.4.6/libgcc.a(_aeabi_uldivmod.o)
 .debug_line    0x00000a12       0xa8 /opt/toolchain_hisi_ipsec/arm-hsan-linux-uclibcgnueabi/bin/../lib/gcc/arm-hsan-linux-uclibcgnueabi/4.4.6/libgcc.a(_dvmd_lnx.o)
 .debug_line    0x00000aba       0xab /opt/toolchain_hisi_ipsec/arm-hsan-linux-uclibcgnueabi/bin/../lib/gcc/arm-hsan-linux-uclibcgnueabi/4.4.6/libgcc.a(bpabi.o)
 .debug_line    0x00000b65      0x115 /opt/toolchain_hisi_ipsec/arm-hsan-linux-uclibcgnueabi/bin/../lib/gcc/arm-hsan-linux-uclibcgnueabi/4.4.6/libgcc.a(_divdi3.o)
 .debug_line    0x00000c7a      0x101 /opt/toolchain_hisi_ipsec/arm-hsan-linux-uclibcgnueabi/bin/../lib/gcc/arm-hsan-linux-uclibcgnueabi/4.4.6/libgcc.a(_udivdi3.o)
 .debug_line    0x00000d7b       0xb2 /opt/toolchain_hisi_ipsec/arm-hsan-linux-uclibcgnueabi/bin/../lib/gcc/arm-hsan-linux-uclibcgnueabi/4.4.6/libgcc.a(_clzsi2.o)

.debug_frame    0x00000000      0x144
 *(SORT(.debug_frame))
 .debug_frame   0x00000000       0x2c /opt/toolchain_hisi_ipsec/arm-hsan-linux-uclibcgnueabi/bin/../lib/gcc/arm-hsan-linux-uclibcgnueabi/4.4.6/libgcc.a(_udivsi3.o)
 .debug_frame   0x0000002c       0x2c /opt/toolchain_hisi_ipsec/arm-hsan-linux-uclibcgnueabi/bin/../lib/gcc/arm-hsan-linux-uclibcgnueabi/4.4.6/libgcc.a(_divsi3.o)
 .debug_frame   0x00000058       0x60 /opt/toolchain_hisi_ipsec/arm-hsan-linux-uclibcgnueabi/bin/../lib/gcc/arm-hsan-linux-uclibcgnueabi/4.4.6/libgcc.a(bpabi.o)
 .debug_frame   0x000000b8       0x44 /opt/toolchain_hisi_ipsec/arm-hsan-linux-uclibcgnueabi/bin/../lib/gcc/arm-hsan-linux-uclibcgnueabi/4.4.6/libgcc.a(_divdi3.o)
 .debug_frame   0x000000fc       0x48 /opt/toolchain_hisi_ipsec/arm-hsan-linux-uclibcgnueabi/bin/../lib/gcc/arm-hsan-linux-uclibcgnueabi/4.4.6/libgcc.a(_udivdi3.o)

.debug_str      0x00000000      0x28f
 *(SORT(.debug_str))
 .debug_str     0x00000000       0xde /opt/toolchain_hisi_ipsec/arm-hsan-linux-uclibcgnueabi/bin/../lib/gcc/arm-hsan-linux-uclibcgnueabi/4.4.6/libgcc.a(bpabi.o)
 .debug_str     0x000000de      0x1a7 /opt/toolchain_hisi_ipsec/arm-hsan-linux-uclibcgnueabi/bin/../lib/gcc/arm-hsan-linux-uclibcgnueabi/4.4.6/libgcc.a(_divdi3.o)
                                0x22c (size before relaxing)
 .debug_str     0x00000285        0xa /opt/toolchain_hisi_ipsec/arm-hsan-linux-uclibcgnueabi/bin/../lib/gcc/arm-hsan-linux-uclibcgnueabi/4.4.6/libgcc.a(_udivdi3.o)
                                0x22d (size before relaxing)

.debug_loc      0x00000000      0xedc
 *(SORT(.debug_loc))
 .debug_loc     0x00000000      0x11e /opt/toolchain_hisi_ipsec/arm-hsan-linux-uclibcgnueabi/bin/../lib/gcc/arm-hsan-linux-uclibcgnueabi/4.4.6/libgcc.a(bpabi.o)
 .debug_loc     0x0000011e      0x76b /opt/toolchain_hisi_ipsec/arm-hsan-linux-uclibcgnueabi/bin/../lib/gcc/arm-hsan-linux-uclibcgnueabi/4.4.6/libgcc.a(_divdi3.o)
 .debug_loc     0x00000889      0x653 /opt/toolchain_hisi_ipsec/arm-hsan-linux-uclibcgnueabi/bin/../lib/gcc/arm-hsan-linux-uclibcgnueabi/4.4.6/libgcc.a(_udivdi3.o)

.debug_macinfo
 *(SORT(.debug_macinfo))

.debug_weaknames
 *(SORT(.debug_weaknames))

.debug_funcnames
 *(SORT(.debug_funcnames))

.debug_typenames
 *(SORT(.debug_typenames))

.debug_varnames
 *(SORT(.debug_varnames))

.debug_pubtypes
 *(SORT(.debug_pubtypes))

.debug_ranges   0x00000000      0x120
 *(SORT(.debug_ranges))
 .debug_ranges  0x00000000       0x98 /opt/toolchain_hisi_ipsec/arm-hsan-linux-uclibcgnueabi/bin/../lib/gcc/arm-hsan-linux-uclibcgnueabi/4.4.6/libgcc.a(_divdi3.o)
 .debug_ranges  0x00000098       0x88 /opt/toolchain_hisi_ipsec/arm-hsan-linux-uclibcgnueabi/bin/../lib/gcc/arm-hsan-linux-uclibcgnueabi/4.4.6/libgcc.a(_udivdi3.o)

.gnu.attributes
 *(SORT(.gnu.attributes))

.note.gnu.arm.ident
 *(SORT(.note.gnu.arm.ident))

/DISCARD/
 *(SORT(.note.GNU-stack))
 *(SORT(.gnu_debuglink))
 *(SORT(.gnu.lto_*))
OUTPUT(busybox_unstripped elf32-littlearm)
